
build/Lab4_Spel.elf:     file format elf32-littleriscv


Disassembly of section .text:

20000000 <_start>:
20000000:	2001c137          	lui	sp,0x2001c
20000004:	6f5000ef          	jal	20000ef8 <_crt_init>
20000008:	00000297          	auipc	t0,0x0
2000000c:	20428293          	addi	t0,t0,516 # 2000020c <main>
20000010:	00000097          	auipc	ra,0x0
20000014:	01c08093          	addi	ra,ra,28 # 2000002c <exit>
20000018:	34129073          	csrw	mepc,t0
2000001c:	00004337          	lui	t1,0x4
20000020:	88030313          	addi	t1,t1,-1920 # 3880 <_start-0x1fffc780>
20000024:	30031073          	csrw	mstatus,t1
20000028:	30200073          	mret

2000002c <exit>:
2000002c:	114010ef          	jal	20001140 <_crt_deinit>
20000030:	0000006f          	j	20000030 <exit+0x4>

20000034 <init_gpio>:
#include "gpio.h"

void init_gpio() {
20000034:	ff010113          	addi	sp,sp,-16 # 2001bff0 <__stack_top+0x144b4>
20000038:	00112623          	sw	ra,12(sp)
2000003c:	00812423          	sw	s0,8(sp)
20000040:	01010413          	addi	s0,sp,16
  // GPIOD [0:7] keypad
  // - cols [0:3] (input, pull-up)
  // - rows [4:7] (output, open drain, 2 MHz)
  GPIOD->CFGLR = 0x66668888;
20000044:	400117b7          	lui	a5,0x40011
20000048:	40078793          	addi	a5,a5,1024 # 40011400 <__stack_top+0x200098c4>
2000004c:	66669737          	lui	a4,0x66669
20000050:	88870713          	addi	a4,a4,-1912 # 66668888 <__stack_top+0x46660d4c>
20000054:	00e7a023          	sw	a4,0(a5)
  GPIOD->BSR = 0xF << 0;
20000058:	400117b7          	lui	a5,0x40011
2000005c:	40078793          	addi	a5,a5,1024 # 40011400 <__stack_top+0x200098c4>
20000060:	00f00713          	li	a4,15
20000064:	00e79823          	sh	a4,16(a5)
  // Activate all rows
  GPIOD->BCR = 0xF << 4;
20000068:	400117b7          	lui	a5,0x40011
2000006c:	40078793          	addi	a5,a5,1024 # 40011400 <__stack_top+0x200098c4>
20000070:	0f000713          	li	a4,240
20000074:	00e79a23          	sh	a4,20(a5)
  // GPIOE [0] buzzer (output, push/pull, 2 MHz)
  GPIOE->CFGLR &= ~(0xF << 0);
20000078:	400127b7          	lui	a5,0x40012
2000007c:	80078793          	addi	a5,a5,-2048 # 40011800 <__stack_top+0x20009cc4>
20000080:	0007a703          	lw	a4,0(a5)
20000084:	400127b7          	lui	a5,0x40012
20000088:	80078793          	addi	a5,a5,-2048 # 40011800 <__stack_top+0x20009cc4>
2000008c:	ff077713          	andi	a4,a4,-16
20000090:	00e7a023          	sw	a4,0(a5)
  GPIOE->CFGLR |=  (0x2 << 0);
20000094:	400127b7          	lui	a5,0x40012
20000098:	80078793          	addi	a5,a5,-2048 # 40011800 <__stack_top+0x20009cc4>
2000009c:	0007a703          	lw	a4,0(a5)
200000a0:	400127b7          	lui	a5,0x40012
200000a4:	80078793          	addi	a5,a5,-2048 # 40011800 <__stack_top+0x20009cc4>
200000a8:	00276713          	ori	a4,a4,2
200000ac:	00e7a023          	sw	a4,0(a5)
  // GPIOD [8:15] bargraph (output, push/pull, 2 MHz)
  GPIOD->CFGHR = 0x22222222;
200000b0:	400117b7          	lui	a5,0x40011
200000b4:	40078793          	addi	a5,a5,1024 # 40011400 <__stack_top+0x200098c4>
200000b8:	22222737          	lui	a4,0x22222
200000bc:	22270713          	addi	a4,a4,546 # 22222222 <__stack_top+0x221a6e6>
200000c0:	00e7a223          	sw	a4,4(a5)
  // turn off all leds
  GPIOD->BCR = 0xFF << 8;
200000c4:	400117b7          	lui	a5,0x40011
200000c8:	40078793          	addi	a5,a5,1024 # 40011400 <__stack_top+0x200098c4>
200000cc:	f0000713          	li	a4,-256
200000d0:	00e79a23          	sh	a4,20(a5)
200000d4:	00000013          	nop
200000d8:	00c12083          	lw	ra,12(sp)
200000dc:	00812403          	lw	s0,8(sp)
200000e0:	01010113          	addi	sp,sp,16
200000e4:	00008067          	ret

200000e8 <keypad>:
#include "gpio.h"
#include "keypad.h"

uint8_t keypad() {
200000e8:	fe010113          	addi	sp,sp,-32
200000ec:	00112e23          	sw	ra,28(sp)
200000f0:	00812c23          	sw	s0,24(sp)
200000f4:	02010413          	addi	s0,sp,32
  int row;
  int col;
  uint16_t idr;
  // Deactivate all rows
  GPIOD->BSR = 0xF << 4;
200000f8:	400117b7          	lui	a5,0x40011
200000fc:	40078793          	addi	a5,a5,1024 # 40011400 <__stack_top+0x200098c4>
20000100:	0f000713          	li	a4,240
20000104:	00e79823          	sh	a4,16(a5)
  // For each row:
  for (row = 0; row < 4; row++) {
20000108:	fe042623          	sw	zero,-20(s0)
2000010c:	0cc0006f          	j	200001d8 <keypad+0xf0>
    // Activate row
    GPIOD->BCR = 1 << (row + 4);
20000110:	fec42783          	lw	a5,-20(s0)
20000114:	00478793          	addi	a5,a5,4
20000118:	00100713          	li	a4,1
2000011c:	00f71733          	sll	a4,a4,a5
20000120:	400117b7          	lui	a5,0x40011
20000124:	40078793          	addi	a5,a5,1024 # 40011400 <__stack_top+0x200098c4>
20000128:	01071713          	slli	a4,a4,0x10
2000012c:	01075713          	srli	a4,a4,0x10
20000130:	00e79a23          	sh	a4,20(a5)
    // pin update speed set to 2 MHz
    // => need to wait for 500 ns before reading columns
    // but can't overwrite systick, so we'll waste time with an empty loop
    for (int i = 0; i < 100; i++) {
20000134:	fe042223          	sw	zero,-28(s0)
20000138:	0100006f          	j	20000148 <keypad+0x60>
2000013c:	fe442783          	lw	a5,-28(s0)
20000140:	00178793          	addi	a5,a5,1
20000144:	fef42223          	sw	a5,-28(s0)
20000148:	fe442703          	lw	a4,-28(s0)
2000014c:	06300793          	li	a5,99
20000150:	fee7d6e3          	bge	a5,a4,2000013c <keypad+0x54>
    }
    // For each column:
    // if column is active, activate all rows and return key index
    idr = GPIOD->IDR;
20000154:	400117b7          	lui	a5,0x40011
20000158:	40078793          	addi	a5,a5,1024 # 40011400 <__stack_top+0x200098c4>
2000015c:	0087d783          	lhu	a5,8(a5)
20000160:	fef41123          	sh	a5,-30(s0)
    for (col = 0; col < 4; col++) {
20000164:	fe042423          	sw	zero,-24(s0)
20000168:	0580006f          	j	200001c0 <keypad+0xd8>
      if ((idr & (1 << col)) == 0) {
2000016c:	fe245703          	lhu	a4,-30(s0)
20000170:	fe842783          	lw	a5,-24(s0)
20000174:	40f757b3          	sra	a5,a4,a5
20000178:	0017f793          	andi	a5,a5,1
2000017c:	02079c63          	bnez	a5,200001b4 <keypad+0xcc>
        GPIOD->BCR = 0xF << 4;
20000180:	400117b7          	lui	a5,0x40011
20000184:	40078793          	addi	a5,a5,1024 # 40011400 <__stack_top+0x200098c4>
20000188:	0f000713          	li	a4,240
2000018c:	00e79a23          	sh	a4,20(a5)
        return 4 * row + col;
20000190:	fec42783          	lw	a5,-20(s0)
20000194:	0ff7f793          	zext.b	a5,a5
20000198:	00279793          	slli	a5,a5,0x2
2000019c:	0ff7f713          	zext.b	a4,a5
200001a0:	fe842783          	lw	a5,-24(s0)
200001a4:	0ff7f793          	zext.b	a5,a5
200001a8:	00f707b3          	add	a5,a4,a5
200001ac:	0ff7f793          	zext.b	a5,a5
200001b0:	0480006f          	j	200001f8 <keypad+0x110>
    for (col = 0; col < 4; col++) {
200001b4:	fe842783          	lw	a5,-24(s0)
200001b8:	00178793          	addi	a5,a5,1
200001bc:	fef42423          	sw	a5,-24(s0)
200001c0:	fe842703          	lw	a4,-24(s0)
200001c4:	00300793          	li	a5,3
200001c8:	fae7d2e3          	bge	a5,a4,2000016c <keypad+0x84>
  for (row = 0; row < 4; row++) {
200001cc:	fec42783          	lw	a5,-20(s0)
200001d0:	00178793          	addi	a5,a5,1
200001d4:	fef42623          	sw	a5,-20(s0)
200001d8:	fec42703          	lw	a4,-20(s0)
200001dc:	00300793          	li	a5,3
200001e0:	f2e7d8e3          	bge	a5,a4,20000110 <keypad+0x28>
      }
    }
  }
  // No key pressed. Activate all rows and return error code
  GPIOD->BCR = 0xF << 4;
200001e4:	400117b7          	lui	a5,0x40011
200001e8:	40078793          	addi	a5,a5,1024 # 40011400 <__stack_top+0x200098c4>
200001ec:	0f000713          	li	a4,240
200001f0:	00e79a23          	sh	a4,20(a5)
  return 0xFF;
200001f4:	0ff00793          	li	a5,255
200001f8:	00078513          	mv	a0,a5
200001fc:	01c12083          	lw	ra,28(sp)
20000200:	01812403          	lw	s0,24(sp)
20000204:	02010113          	addi	sp,sp,32
20000208:	00008067          	ret

2000020c <main>:
int SPACESHIP_SIZE = 40;
int SPACESHIP_XPOS = 40;
int BULLETS_SIZE = 10;


int main(void) {
2000020c:	f6010113          	addi	sp,sp,-160
20000210:	08112e23          	sw	ra,156(sp)
20000214:	08812c23          	sw	s0,152(sp)
20000218:	0a010413          	addi	s0,sp,160
    // Initialize the display
    tft_init(TFT_INIT_ILI9488);
2000021c:	00100513          	li	a0,1
20000220:	454010ef          	jal	20001674 <tft_init>
    init_gpio();
20000224:	e11ff0ef          	jal	20000034 <init_gpio>
    
    int x_pos = SPACESHIP_XPOS;
20000228:	200077b7          	lui	a5,0x20007
2000022c:	db87a783          	lw	a5,-584(a5) # 20006db8 <SPACESHIP_XPOS>
20000230:	fcf42a23          	sw	a5,-44(s0)
    int y_pos = 180;
20000234:	0b400793          	li	a5,180
20000238:	fef42623          	sw	a5,-20(s0)

    // initiera tomma arrays för kulornas positioner
    int bullets_xpos[5] = {0};
2000023c:	fa042e23          	sw	zero,-68(s0)
20000240:	fc042023          	sw	zero,-64(s0)
20000244:	fc042223          	sw	zero,-60(s0)
20000248:	fc042423          	sw	zero,-56(s0)
2000024c:	fc042623          	sw	zero,-52(s0)
    int bullets_ypos[5] = {0};
20000250:	fa042423          	sw	zero,-88(s0)
20000254:	fa042623          	sw	zero,-84(s0)
20000258:	fa042823          	sw	zero,-80(s0)
2000025c:	fa042a23          	sw	zero,-76(s0)
20000260:	fa042c23          	sw	zero,-72(s0)
    
    // tilldela y-positioner till kulorna
    for (int i = 0; i<5; i++) {
20000264:	fe042423          	sw	zero,-24(s0)
20000268:	06c0006f          	j	200002d4 <main+0xc8>
        bullets_xpos[i] = (LCD_W - SPACESHIP_XPOS) * i/5;
2000026c:	200077b7          	lui	a5,0x20007
20000270:	db87a783          	lw	a5,-584(a5) # 20006db8 <SPACESHIP_XPOS>
20000274:	1e000713          	li	a4,480
20000278:	40f70733          	sub	a4,a4,a5
2000027c:	fe842783          	lw	a5,-24(s0)
20000280:	02f707b3          	mul	a5,a4,a5
20000284:	66666737          	lui	a4,0x66666
20000288:	66770713          	addi	a4,a4,1639 # 66666667 <__stack_top+0x4665eb2b>
2000028c:	02e79733          	mulh	a4,a5,a4
20000290:	40175713          	srai	a4,a4,0x1
20000294:	41f7d793          	srai	a5,a5,0x1f
20000298:	40f70733          	sub	a4,a4,a5
2000029c:	fe842683          	lw	a3,-24(s0)
200002a0:	fbc40793          	addi	a5,s0,-68
200002a4:	00269693          	slli	a3,a3,0x2
200002a8:	00f687b3          	add	a5,a3,a5
200002ac:	00e7a023          	sw	a4,0(a5)
        bullets_ypos[i] = y_pos;
200002b0:	fe842703          	lw	a4,-24(s0)
200002b4:	fa840793          	addi	a5,s0,-88
200002b8:	00271713          	slli	a4,a4,0x2
200002bc:	00f707b3          	add	a5,a4,a5
200002c0:	fec42703          	lw	a4,-20(s0)
200002c4:	00e7a023          	sw	a4,0(a5)
    for (int i = 0; i<5; i++) {
200002c8:	fe842783          	lw	a5,-24(s0)
200002cc:	00178793          	addi	a5,a5,1
200002d0:	fef42423          	sw	a5,-24(s0)
200002d4:	fe842703          	lw	a4,-24(s0)
200002d8:	00400793          	li	a5,4
200002dc:	f8e7d8e3          	bge	a5,a4,2000026c <main+0x60>
    }

    // initiera tomma arrays för fiendernas positioner
    int enemy_xpos[5] = {0};
200002e0:	f8042a23          	sw	zero,-108(s0)
200002e4:	f8042c23          	sw	zero,-104(s0)
200002e8:	f8042e23          	sw	zero,-100(s0)
200002ec:	fa042023          	sw	zero,-96(s0)
200002f0:	fa042223          	sw	zero,-92(s0)
    int enemy_ypos[5] = {0};
200002f4:	f8042023          	sw	zero,-128(s0)
200002f8:	f8042223          	sw	zero,-124(s0)
200002fc:	f8042423          	sw	zero,-120(s0)
20000300:	f8042623          	sw	zero,-116(s0)
20000304:	f8042823          	sw	zero,-112(s0)
    int enemy_spawn_delays[5] = {0};
20000308:	f6042623          	sw	zero,-148(s0)
2000030c:	f6042823          	sw	zero,-144(s0)
20000310:	f6042a23          	sw	zero,-140(s0)
20000314:	f6042c23          	sw	zero,-136(s0)
20000318:	f6042e23          	sw	zero,-132(s0)

    for (int i = 0; i<5; i++) {
2000031c:	fe042223          	sw	zero,-28(s0)
20000320:	0540006f          	j	20000374 <main+0x168>
        enemy_spawn_delays[i] = 60 * i;
20000324:	fe442703          	lw	a4,-28(s0)
20000328:	00070793          	mv	a5,a4
2000032c:	00479793          	slli	a5,a5,0x4
20000330:	40e787b3          	sub	a5,a5,a4
20000334:	00279793          	slli	a5,a5,0x2
20000338:	00078693          	mv	a3,a5
2000033c:	fe442703          	lw	a4,-28(s0)
20000340:	f6c40793          	addi	a5,s0,-148
20000344:	00271713          	slli	a4,a4,0x2
20000348:	00f707b3          	add	a5,a4,a5
2000034c:	00d7a023          	sw	a3,0(a5)
        enemy_ypos[i] = 40;
20000350:	fe442703          	lw	a4,-28(s0)
20000354:	f8040793          	addi	a5,s0,-128
20000358:	00271713          	slli	a4,a4,0x2
2000035c:	00f707b3          	add	a5,a4,a5
20000360:	02800713          	li	a4,40
20000364:	00e7a023          	sw	a4,0(a5)
    for (int i = 0; i<5; i++) {
20000368:	fe442783          	lw	a5,-28(s0)
2000036c:	00178793          	addi	a5,a5,1
20000370:	fef42223          	sw	a5,-28(s0)
20000374:	fe442703          	lw	a4,-28(s0)
20000378:	00400793          	li	a5,4
2000037c:	fae7d4e3          	bge	a5,a4,20000324 <main+0x118>

    while (1 == 1) {

        // Clear the screen with black color
        
        uint8_t key_pressed = keypad();
20000380:	d69ff0ef          	jal	200000e8 <keypad>
20000384:	00050793          	mv	a5,a0
20000388:	fcf409a3          	sb	a5,-45(s0)
        switch (key_pressed) {
2000038c:	fd344783          	lbu	a5,-45(s0)
20000390:	00078863          	beqz	a5,200003a0 <main+0x194>
20000394:	00200713          	li	a4,2
20000398:	02e78c63          	beq	a5,a4,200003d0 <main+0x1c4>
                if(y_pos < 480-SPACESHIP_SIZE/2){
                    y_pos++;
                }
                break;
            default:
                break;
2000039c:	0740006f          	j	20000410 <main+0x204>
                if(y_pos > 0 +SPACESHIP_SIZE/2){
200003a0:	200077b7          	lui	a5,0x20007
200003a4:	db47a783          	lw	a5,-588(a5) # 20006db4 <SPACESHIP_SIZE>
200003a8:	01f7d713          	srli	a4,a5,0x1f
200003ac:	00f707b3          	add	a5,a4,a5
200003b0:	4017d793          	srai	a5,a5,0x1
200003b4:	00078713          	mv	a4,a5
200003b8:	fec42783          	lw	a5,-20(s0)
200003bc:	04f75463          	bge	a4,a5,20000404 <main+0x1f8>
                    y_pos--;
200003c0:	fec42783          	lw	a5,-20(s0)
200003c4:	fff78793          	addi	a5,a5,-1
200003c8:	fef42623          	sw	a5,-20(s0)
                break;
200003cc:	0380006f          	j	20000404 <main+0x1f8>
                if(y_pos < 480-SPACESHIP_SIZE/2){
200003d0:	200077b7          	lui	a5,0x20007
200003d4:	db47a783          	lw	a5,-588(a5) # 20006db4 <SPACESHIP_SIZE>
200003d8:	01f7d713          	srli	a4,a5,0x1f
200003dc:	00f707b3          	add	a5,a4,a5
200003e0:	4017d793          	srai	a5,a5,0x1
200003e4:	40f007b3          	neg	a5,a5
200003e8:	1df78793          	addi	a5,a5,479
200003ec:	fec42703          	lw	a4,-20(s0)
200003f0:	00e7ce63          	blt	a5,a4,2000040c <main+0x200>
                    y_pos++;
200003f4:	fec42783          	lw	a5,-20(s0)
200003f8:	00178793          	addi	a5,a5,1
200003fc:	fef42623          	sw	a5,-20(s0)
                break;
20000400:	00c0006f          	j	2000040c <main+0x200>
                break;
20000404:	00000013          	nop
20000408:	0080006f          	j	20000410 <main+0x204>
                break;
2000040c:	00000013          	nop
        }
        tft_lcd_rect(1, 1, LCD_W - 1, LCD_H - 1, 0x0000, 1);
20000410:	00100793          	li	a5,1
20000414:	00000713          	li	a4,0
20000418:	13f00693          	li	a3,319
2000041c:	1df00613          	li	a2,479
20000420:	00100593          	li	a1,1
20000424:	00100513          	li	a0,1
20000428:	316010ef          	jal	2000173e <tft_lcd_rect>
        for (int i = 0; i<5; i++) {
2000042c:	fe042023          	sw	zero,-32(s0)
20000430:	1280006f          	j	20000558 <main+0x34c>
            bullets_xpos[i] += 3;
20000434:	fe042703          	lw	a4,-32(s0)
20000438:	fbc40793          	addi	a5,s0,-68
2000043c:	00271713          	slli	a4,a4,0x2
20000440:	00f707b3          	add	a5,a4,a5
20000444:	0007a783          	lw	a5,0(a5)
20000448:	00378713          	addi	a4,a5,3
2000044c:	fe042683          	lw	a3,-32(s0)
20000450:	fbc40793          	addi	a5,s0,-68
20000454:	00269693          	slli	a3,a3,0x2
20000458:	00f687b3          	add	a5,a3,a5
2000045c:	00e7a023          	sw	a4,0(a5)
            if (bullets_xpos[i] > 480) {
20000460:	fe042703          	lw	a4,-32(s0)
20000464:	fbc40793          	addi	a5,s0,-68
20000468:	00271713          	slli	a4,a4,0x2
2000046c:	00f707b3          	add	a5,a4,a5
20000470:	0007a703          	lw	a4,0(a5)
20000474:	1e000793          	li	a5,480
20000478:	04e7da63          	bge	a5,a4,200004cc <main+0x2c0>
                bullets_xpos[i] = SPACESHIP_XPOS+SPACESHIP_SIZE/2;
2000047c:	200077b7          	lui	a5,0x20007
20000480:	db47a783          	lw	a5,-588(a5) # 20006db4 <SPACESHIP_SIZE>
20000484:	01f7d713          	srli	a4,a5,0x1f
20000488:	00f707b3          	add	a5,a4,a5
2000048c:	4017d793          	srai	a5,a5,0x1
20000490:	00078713          	mv	a4,a5
20000494:	200077b7          	lui	a5,0x20007
20000498:	db87a783          	lw	a5,-584(a5) # 20006db8 <SPACESHIP_XPOS>
2000049c:	00f70733          	add	a4,a4,a5
200004a0:	fe042683          	lw	a3,-32(s0)
200004a4:	fbc40793          	addi	a5,s0,-68
200004a8:	00269693          	slli	a3,a3,0x2
200004ac:	00f687b3          	add	a5,a3,a5
200004b0:	00e7a023          	sw	a4,0(a5)
                bullets_ypos[i] = y_pos;
200004b4:	fe042703          	lw	a4,-32(s0)
200004b8:	fa840793          	addi	a5,s0,-88
200004bc:	00271713          	slli	a4,a4,0x2
200004c0:	00f707b3          	add	a5,a4,a5
200004c4:	fec42703          	lw	a4,-20(s0)
200004c8:	00e7a023          	sw	a4,0(a5)
            }
            tft_lcd_rect(bullets_xpos[i]-BULLETS_SIZE/2, bullets_ypos[i]-BULLETS_SIZE/2, BULLETS_SIZE, BULLETS_SIZE, TFT_WHITE, 1);
200004cc:	fe042703          	lw	a4,-32(s0)
200004d0:	fbc40793          	addi	a5,s0,-68
200004d4:	00271713          	slli	a4,a4,0x2
200004d8:	00f707b3          	add	a5,a4,a5
200004dc:	0007a703          	lw	a4,0(a5)
200004e0:	200077b7          	lui	a5,0x20007
200004e4:	dbc7a783          	lw	a5,-580(a5) # 20006dbc <BULLETS_SIZE>
200004e8:	01f7d693          	srli	a3,a5,0x1f
200004ec:	00f687b3          	add	a5,a3,a5
200004f0:	4017d793          	srai	a5,a5,0x1
200004f4:	40f007b3          	neg	a5,a5
200004f8:	00f70533          	add	a0,a4,a5
200004fc:	fe042703          	lw	a4,-32(s0)
20000500:	fa840793          	addi	a5,s0,-88
20000504:	00271713          	slli	a4,a4,0x2
20000508:	00f707b3          	add	a5,a4,a5
2000050c:	0007a703          	lw	a4,0(a5)
20000510:	200077b7          	lui	a5,0x20007
20000514:	dbc7a783          	lw	a5,-580(a5) # 20006dbc <BULLETS_SIZE>
20000518:	01f7d693          	srli	a3,a5,0x1f
2000051c:	00f687b3          	add	a5,a3,a5
20000520:	4017d793          	srai	a5,a5,0x1
20000524:	40f007b3          	neg	a5,a5
20000528:	00f705b3          	add	a1,a4,a5
2000052c:	200077b7          	lui	a5,0x20007
20000530:	dbc7a603          	lw	a2,-580(a5) # 20006dbc <BULLETS_SIZE>
20000534:	200077b7          	lui	a5,0x20007
20000538:	dbc7a683          	lw	a3,-580(a5) # 20006dbc <BULLETS_SIZE>
2000053c:	00100793          	li	a5,1
20000540:	00010737          	lui	a4,0x10
20000544:	fff70713          	addi	a4,a4,-1 # ffff <_start-0x1fff0001>
20000548:	1f6010ef          	jal	2000173e <tft_lcd_rect>
        for (int i = 0; i<5; i++) {
2000054c:	fe042783          	lw	a5,-32(s0)
20000550:	00178793          	addi	a5,a5,1
20000554:	fef42023          	sw	a5,-32(s0)
20000558:	fe042703          	lw	a4,-32(s0)
2000055c:	00400793          	li	a5,4
20000560:	ece7dae3          	bge	a5,a4,20000434 <main+0x228>
        }

        for (int i = 0; i<5; i++) {
20000564:	fc042e23          	sw	zero,-36(s0)
20000568:	22c0006f          	j	20000794 <main+0x588>
            enemy_xpos[i] -= 2;
2000056c:	fdc42703          	lw	a4,-36(s0)
20000570:	f9440793          	addi	a5,s0,-108
20000574:	00271713          	slli	a4,a4,0x2
20000578:	00f707b3          	add	a5,a4,a5
2000057c:	0007a783          	lw	a5,0(a5)
20000580:	ffe78713          	addi	a4,a5,-2
20000584:	fdc42683          	lw	a3,-36(s0)
20000588:	f9440793          	addi	a5,s0,-108
2000058c:	00269693          	slli	a3,a3,0x2
20000590:	00f687b3          	add	a5,a3,a5
20000594:	00e7a023          	sw	a4,0(a5)
            if (enemy_xpos[i] < 0) {
20000598:	fdc42703          	lw	a4,-36(s0)
2000059c:	f9440793          	addi	a5,s0,-108
200005a0:	00271713          	slli	a4,a4,0x2
200005a4:	00f707b3          	add	a5,a4,a5
200005a8:	0007a783          	lw	a5,0(a5)
200005ac:	0007de63          	bgez	a5,200005c8 <main+0x3bc>
                enemy_xpos[i] = 480;
200005b0:	fdc42703          	lw	a4,-36(s0)
200005b4:	f9440793          	addi	a5,s0,-108
200005b8:	00271713          	slli	a4,a4,0x2
200005bc:	00f707b3          	add	a5,a4,a5
200005c0:	1e000713          	li	a4,480
200005c4:	00e7a023          	sw	a4,0(a5)

            }
            if (enemy_spawn_delays[i] == 0) {
200005c8:	fdc42703          	lw	a4,-36(s0)
200005cc:	f6c40793          	addi	a5,s0,-148
200005d0:	00271713          	slli	a4,a4,0x2
200005d4:	00f707b3          	add	a5,a4,a5
200005d8:	0007a783          	lw	a5,0(a5)
200005dc:	04079463          	bnez	a5,20000624 <main+0x418>
                tft_lcd_rect(enemy_xpos[i], enemy_ypos[i], 20, 20, TFT_RED, 1);
200005e0:	fdc42703          	lw	a4,-36(s0)
200005e4:	f9440793          	addi	a5,s0,-108
200005e8:	00271713          	slli	a4,a4,0x2
200005ec:	00f707b3          	add	a5,a4,a5
200005f0:	0007a503          	lw	a0,0(a5)
200005f4:	fdc42703          	lw	a4,-36(s0)
200005f8:	f8040793          	addi	a5,s0,-128
200005fc:	00271713          	slli	a4,a4,0x2
20000600:	00f707b3          	add	a5,a4,a5
20000604:	0007a583          	lw	a1,0(a5)
20000608:	00100793          	li	a5,1
2000060c:	00010737          	lui	a4,0x10
20000610:	80070713          	addi	a4,a4,-2048 # f800 <_start-0x1fff0800>
20000614:	01400693          	li	a3,20
20000618:	01400613          	li	a2,20
2000061c:	122010ef          	jal	2000173e <tft_lcd_rect>
20000620:	0600006f          	j	20000680 <main+0x474>
            } else {
                enemy_spawn_delays[i]--;
20000624:	fdc42703          	lw	a4,-36(s0)
20000628:	f6c40793          	addi	a5,s0,-148
2000062c:	00271713          	slli	a4,a4,0x2
20000630:	00f707b3          	add	a5,a4,a5
20000634:	0007a783          	lw	a5,0(a5)
20000638:	fff78713          	addi	a4,a5,-1
2000063c:	fdc42683          	lw	a3,-36(s0)
20000640:	f6c40793          	addi	a5,s0,-148
20000644:	00269693          	slli	a3,a3,0x2
20000648:	00f687b3          	add	a5,a3,a5
2000064c:	00e7a023          	sw	a4,0(a5)
                if (enemy_spawn_delays[i] == 0) {
20000650:	fdc42703          	lw	a4,-36(s0)
20000654:	f6c40793          	addi	a5,s0,-148
20000658:	00271713          	slli	a4,a4,0x2
2000065c:	00f707b3          	add	a5,a4,a5
20000660:	0007a783          	lw	a5,0(a5)
20000664:	00079e63          	bnez	a5,20000680 <main+0x474>
                    enemy_xpos[i] = 480;
20000668:	fdc42703          	lw	a4,-36(s0)
2000066c:	f9440793          	addi	a5,s0,-108
20000670:	00271713          	slli	a4,a4,0x2
20000674:	00f707b3          	add	a5,a4,a5
20000678:	1e000713          	li	a4,480
2000067c:	00e7a023          	sw	a4,0(a5)
                }
            }

            for (int j=0; j<5; j++) {
20000680:	fc042c23          	sw	zero,-40(s0)
20000684:	0f80006f          	j	2000077c <main+0x570>
                if (enemy_xpos[i] < bullets_xpos[j] && bullets_xpos[j] < enemy_xpos[i]+20 &&
20000688:	fdc42703          	lw	a4,-36(s0)
2000068c:	f9440793          	addi	a5,s0,-108
20000690:	00271713          	slli	a4,a4,0x2
20000694:	00f707b3          	add	a5,a4,a5
20000698:	0007a703          	lw	a4,0(a5)
2000069c:	fd842683          	lw	a3,-40(s0)
200006a0:	fbc40793          	addi	a5,s0,-68
200006a4:	00269693          	slli	a3,a3,0x2
200006a8:	00f687b3          	add	a5,a3,a5
200006ac:	0007a783          	lw	a5,0(a5)
200006b0:	0cf75063          	bge	a4,a5,20000770 <main+0x564>
200006b4:	fdc42703          	lw	a4,-36(s0)
200006b8:	f9440793          	addi	a5,s0,-108
200006bc:	00271713          	slli	a4,a4,0x2
200006c0:	00f707b3          	add	a5,a4,a5
200006c4:	0007a783          	lw	a5,0(a5)
200006c8:	01378713          	addi	a4,a5,19
200006cc:	fd842683          	lw	a3,-40(s0)
200006d0:	fbc40793          	addi	a5,s0,-68
200006d4:	00269693          	slli	a3,a3,0x2
200006d8:	00f687b3          	add	a5,a3,a5
200006dc:	0007a783          	lw	a5,0(a5)
200006e0:	08f74863          	blt	a4,a5,20000770 <main+0x564>
                    enemy_ypos[i] < bullets_ypos[j] && bullets_ypos[j] < enemy_ypos[i]+20) {
200006e4:	fdc42703          	lw	a4,-36(s0)
200006e8:	f8040793          	addi	a5,s0,-128
200006ec:	00271713          	slli	a4,a4,0x2
200006f0:	00f707b3          	add	a5,a4,a5
200006f4:	0007a703          	lw	a4,0(a5)
200006f8:	fd842683          	lw	a3,-40(s0)
200006fc:	fa840793          	addi	a5,s0,-88
20000700:	00269693          	slli	a3,a3,0x2
20000704:	00f687b3          	add	a5,a3,a5
20000708:	0007a783          	lw	a5,0(a5)
                if (enemy_xpos[i] < bullets_xpos[j] && bullets_xpos[j] < enemy_xpos[i]+20 &&
2000070c:	06f75263          	bge	a4,a5,20000770 <main+0x564>
                    enemy_ypos[i] < bullets_ypos[j] && bullets_ypos[j] < enemy_ypos[i]+20) {
20000710:	fdc42703          	lw	a4,-36(s0)
20000714:	f8040793          	addi	a5,s0,-128
20000718:	00271713          	slli	a4,a4,0x2
2000071c:	00f707b3          	add	a5,a4,a5
20000720:	0007a783          	lw	a5,0(a5)
20000724:	01378713          	addi	a4,a5,19
20000728:	fd842683          	lw	a3,-40(s0)
2000072c:	fa840793          	addi	a5,s0,-88
20000730:	00269693          	slli	a3,a3,0x2
20000734:	00f687b3          	add	a5,a3,a5
20000738:	0007a783          	lw	a5,0(a5)
2000073c:	02f74a63          	blt	a4,a5,20000770 <main+0x564>
                    enemy_spawn_delays[i] = 40;
20000740:	fdc42703          	lw	a4,-36(s0)
20000744:	f6c40793          	addi	a5,s0,-148
20000748:	00271713          	slli	a4,a4,0x2
2000074c:	00f707b3          	add	a5,a4,a5
20000750:	02800713          	li	a4,40
20000754:	00e7a023          	sw	a4,0(a5)
                    enemy_xpos[i] = 480;
20000758:	fdc42703          	lw	a4,-36(s0)
2000075c:	f9440793          	addi	a5,s0,-108
20000760:	00271713          	slli	a4,a4,0x2
20000764:	00f707b3          	add	a5,a4,a5
20000768:	1e000713          	li	a4,480
2000076c:	00e7a023          	sw	a4,0(a5)
            for (int j=0; j<5; j++) {
20000770:	fd842783          	lw	a5,-40(s0)
20000774:	00178793          	addi	a5,a5,1
20000778:	fcf42c23          	sw	a5,-40(s0)
2000077c:	fd842703          	lw	a4,-40(s0)
20000780:	00400793          	li	a5,4
20000784:	f0e7d2e3          	bge	a5,a4,20000688 <main+0x47c>
        for (int i = 0; i<5; i++) {
20000788:	fdc42783          	lw	a5,-36(s0)
2000078c:	00178793          	addi	a5,a5,1
20000790:	fcf42e23          	sw	a5,-36(s0)
20000794:	fdc42703          	lw	a4,-36(s0)
20000798:	00400793          	li	a5,4
2000079c:	dce7d8e3          	bge	a5,a4,2000056c <main+0x360>
                }
            }
        }

        tft_lcd_rect(x_pos-SPACESHIP_SIZE/2, y_pos-SPACESHIP_SIZE/2, SPACESHIP_SIZE, SPACESHIP_SIZE, TFT_CYAN, 1);
200007a0:	200077b7          	lui	a5,0x20007
200007a4:	db47a783          	lw	a5,-588(a5) # 20006db4 <SPACESHIP_SIZE>
200007a8:	01f7d713          	srli	a4,a5,0x1f
200007ac:	00f707b3          	add	a5,a4,a5
200007b0:	4017d793          	srai	a5,a5,0x1
200007b4:	40f007b3          	neg	a5,a5
200007b8:	00078713          	mv	a4,a5
200007bc:	fd442783          	lw	a5,-44(s0)
200007c0:	00f70533          	add	a0,a4,a5
200007c4:	200077b7          	lui	a5,0x20007
200007c8:	db47a783          	lw	a5,-588(a5) # 20006db4 <SPACESHIP_SIZE>
200007cc:	01f7d713          	srli	a4,a5,0x1f
200007d0:	00f707b3          	add	a5,a4,a5
200007d4:	4017d793          	srai	a5,a5,0x1
200007d8:	40f007b3          	neg	a5,a5
200007dc:	00078713          	mv	a4,a5
200007e0:	fec42783          	lw	a5,-20(s0)
200007e4:	00f705b3          	add	a1,a4,a5
200007e8:	200077b7          	lui	a5,0x20007
200007ec:	db47a603          	lw	a2,-588(a5) # 20006db4 <SPACESHIP_SIZE>
200007f0:	200077b7          	lui	a5,0x20007
200007f4:	db47a683          	lw	a3,-588(a5) # 20006db4 <SPACESHIP_SIZE>
200007f8:	00100793          	li	a5,1
200007fc:	00008737          	lui	a4,0x8
20000800:	fff70713          	addi	a4,a4,-1 # 7fff <_start-0x1fff8001>
20000804:	73b000ef          	jal	2000173e <tft_lcd_rect>
    while (1 == 1) {
20000808:	b79ff06f          	j	20000380 <main+0x174>

2000080c <systick_periodic_micro>:
#include "systick.h"
#include <stdint.h>

void systick_periodic_micro(uint32_t us) {
2000080c:	fe010113          	addi	sp,sp,-32
20000810:	00112e23          	sw	ra,28(sp)
20000814:	00812c23          	sw	s0,24(sp)
20000818:	02010413          	addi	s0,sp,32
2000081c:	fea42623          	sw	a0,-20(s0)
  STK->CTLR = 0;
20000820:	e000f7b7          	lui	a5,0xe000f
20000824:	0007a023          	sw	zero,0(a5) # e000f000 <__stack_top+0xc00074c4>
  STK->CMPLR = 144 * us - 1;
20000828:	fec42703          	lw	a4,-20(s0)
2000082c:	00070793          	mv	a5,a4
20000830:	00379793          	slli	a5,a5,0x3
20000834:	00e787b3          	add	a5,a5,a4
20000838:	00479793          	slli	a5,a5,0x4
2000083c:	00078713          	mv	a4,a5
20000840:	e000f7b7          	lui	a5,0xe000f
20000844:	fff70713          	addi	a4,a4,-1
20000848:	00e7a823          	sw	a4,16(a5) # e000f010 <__stack_top+0xc00074d4>
  // - INIT  (bit 5)
  // - STRE  (bit 3)
  // - STCLK (bit 2)
  // - STIE  (bit 1)
  // - STE   (bit 0)
  STK->CTLR = (1 << 5) | (1 << 3) | (1 << 2) | (1 << 1) | (1 << 0);
2000084c:	e000f7b7          	lui	a5,0xe000f
20000850:	02f00713          	li	a4,47
20000854:	00e7a023          	sw	a4,0(a5) # e000f000 <__stack_top+0xc00074c4>
}
20000858:	00000013          	nop
2000085c:	01c12083          	lw	ra,28(sp)
20000860:	01812403          	lw	s0,24(sp)
20000864:	02010113          	addi	sp,sp,32
20000868:	00008067          	ret

2000086c <systick_stop>:

2000086c:	ff010113          	addi	sp,sp,-16
20000870:	00112623          	sw	ra,12(sp)
20000874:	00812423          	sw	s0,8(sp)
20000878:	01010413          	addi	s0,sp,16
2000087c:	e000f7b7          	lui	a5,0xe000f
20000880:	0007a023          	sw	zero,0(a5) # e000f000 <__stack_top+0xc00074c4>
20000884:	00000013          	nop
20000888:	00c12083          	lw	ra,12(sp)
2000088c:	00812403          	lw	s0,8(sp)
20000890:	01010113          	addi	sp,sp,16
20000894:	00008067          	ret

20000898 <_pll_init_144>:
20000898:	fe010113          	addi	sp,sp,-32
2000089c:	00112e23          	sw	ra,28(sp)
200008a0:	00812c23          	sw	s0,24(sp)
200008a4:	02010413          	addi	s0,sp,32
200008a8:	fe042623          	sw	zero,-20(s0)
200008ac:	fe042423          	sw	zero,-24(s0)
200008b0:	400217b7          	lui	a5,0x40021
200008b4:	0007a703          	lw	a4,0(a5) # 40021000 <__stack_top+0x200194c4>
200008b8:	400217b7          	lui	a5,0x40021
200008bc:	00176713          	ori	a4,a4,1
200008c0:	00e7a023          	sw	a4,0(a5) # 40021000 <__stack_top+0x200194c4>
200008c4:	400217b7          	lui	a5,0x40021
200008c8:	00478793          	addi	a5,a5,4 # 40021004 <__stack_top+0x200194c8>
200008cc:	0007a683          	lw	a3,0(a5)
200008d0:	400217b7          	lui	a5,0x40021
200008d4:	00478793          	addi	a5,a5,4 # 40021004 <__stack_top+0x200194c8>
200008d8:	f8ff0737          	lui	a4,0xf8ff0
200008dc:	00e6f733          	and	a4,a3,a4
200008e0:	00e7a023          	sw	a4,0(a5)
200008e4:	400217b7          	lui	a5,0x40021
200008e8:	0007a683          	lw	a3,0(a5) # 40021000 <__stack_top+0x200194c4>
200008ec:	400217b7          	lui	a5,0x40021
200008f0:	fef70737          	lui	a4,0xfef70
200008f4:	fff70713          	addi	a4,a4,-1 # fef6ffff <__stack_top+0xdef684c3>
200008f8:	00e6f733          	and	a4,a3,a4
200008fc:	00e7a023          	sw	a4,0(a5) # 40021000 <__stack_top+0x200194c4>
20000900:	400217b7          	lui	a5,0x40021
20000904:	0007a683          	lw	a3,0(a5) # 40021000 <__stack_top+0x200194c4>
20000908:	400217b7          	lui	a5,0x40021
2000090c:	fffc0737          	lui	a4,0xfffc0
20000910:	fff70713          	addi	a4,a4,-1 # fffbffff <__stack_top+0xdffb84c3>
20000914:	00e6f733          	and	a4,a3,a4
20000918:	00e7a023          	sw	a4,0(a5) # 40021000 <__stack_top+0x200194c4>
2000091c:	400217b7          	lui	a5,0x40021
20000920:	00478793          	addi	a5,a5,4 # 40021004 <__stack_top+0x200194c8>
20000924:	0007a683          	lw	a3,0(a5)
20000928:	400217b7          	lui	a5,0x40021
2000092c:	00478793          	addi	a5,a5,4 # 40021004 <__stack_top+0x200194c8>
20000930:	ff810737          	lui	a4,0xff810
20000934:	fff70713          	addi	a4,a4,-1 # ff80ffff <__stack_top+0xdf8084c3>
20000938:	00e6f733          	and	a4,a3,a4
2000093c:	00e7a023          	sw	a4,0(a5)
20000940:	400217b7          	lui	a5,0x40021
20000944:	0007a683          	lw	a3,0(a5) # 40021000 <__stack_top+0x200194c4>
20000948:	400217b7          	lui	a5,0x40021
2000094c:	ec000737          	lui	a4,0xec000
20000950:	fff70713          	addi	a4,a4,-1 # ebffffff <__stack_top+0xcbff84c3>
20000954:	00e6f733          	and	a4,a3,a4
20000958:	00e7a023          	sw	a4,0(a5) # 40021000 <__stack_top+0x200194c4>
2000095c:	400217b7          	lui	a5,0x40021
20000960:	00878793          	addi	a5,a5,8 # 40021008 <__stack_top+0x200194cc>
20000964:	00ff0737          	lui	a4,0xff0
20000968:	00e7a023          	sw	a4,0(a5)
2000096c:	400217b7          	lui	a5,0x40021
20000970:	02c78793          	addi	a5,a5,44 # 4002102c <__stack_top+0x200194f0>
20000974:	0007a023          	sw	zero,0(a5)
20000978:	400217b7          	lui	a5,0x40021
2000097c:	0007a683          	lw	a3,0(a5) # 40021000 <__stack_top+0x200194c4>
20000980:	400217b7          	lui	a5,0x40021
20000984:	00010737          	lui	a4,0x10
20000988:	00e6e733          	or	a4,a3,a4
2000098c:	00e7a023          	sw	a4,0(a5) # 40021000 <__stack_top+0x200194c4>
20000990:	400217b7          	lui	a5,0x40021
20000994:	0007a703          	lw	a4,0(a5) # 40021000 <__stack_top+0x200194c4>
20000998:	000207b7          	lui	a5,0x20
2000099c:	00f777b3          	and	a5,a4,a5
200009a0:	fef42423          	sw	a5,-24(s0)
200009a4:	fec42783          	lw	a5,-20(s0)
200009a8:	00178793          	addi	a5,a5,1 # 20001 <_start-0x1ffdffff>
200009ac:	fef42623          	sw	a5,-20(s0)
200009b0:	fe842783          	lw	a5,-24(s0)
200009b4:	00079863          	bnez	a5,200009c4 <_pll_init_144+0x12c>
200009b8:	fec42703          	lw	a4,-20(s0)
200009bc:	1f400793          	li	a5,500
200009c0:	fcf718e3          	bne	a4,a5,20000990 <_pll_init_144+0xf8>
200009c4:	400217b7          	lui	a5,0x40021
200009c8:	0007a703          	lw	a4,0(a5) # 40021000 <__stack_top+0x200194c4>
200009cc:	000207b7          	lui	a5,0x20
200009d0:	00f777b3          	and	a5,a4,a5
200009d4:	00079663          	bnez	a5,200009e0 <_pll_init_144+0x148>
200009d8:	00100793          	li	a5,1
200009dc:	11c0006f          	j	20000af8 <_pll_init_144+0x260>
200009e0:	400217b7          	lui	a5,0x40021
200009e4:	00478713          	addi	a4,a5,4 # 40021004 <__stack_top+0x200194c8>
200009e8:	400217b7          	lui	a5,0x40021
200009ec:	00478793          	addi	a5,a5,4 # 40021004 <__stack_top+0x200194c8>
200009f0:	00072703          	lw	a4,0(a4) # 10000 <_start-0x1fff0000>
200009f4:	00e7a023          	sw	a4,0(a5)
200009f8:	400217b7          	lui	a5,0x40021
200009fc:	00478713          	addi	a4,a5,4 # 40021004 <__stack_top+0x200194c8>
20000a00:	400217b7          	lui	a5,0x40021
20000a04:	00478793          	addi	a5,a5,4 # 40021004 <__stack_top+0x200194c8>
20000a08:	00072703          	lw	a4,0(a4)
20000a0c:	00e7a023          	sw	a4,0(a5)
20000a10:	400217b7          	lui	a5,0x40021
20000a14:	02c78793          	addi	a5,a5,44 # 4002102c <__stack_top+0x200194f0>
20000a18:	0007a703          	lw	a4,0(a5)
20000a1c:	400217b7          	lui	a5,0x40021
20000a20:	02c78793          	addi	a5,a5,44 # 4002102c <__stack_top+0x200194f0>
20000a24:	40076713          	ori	a4,a4,1024
20000a28:	00e7a023          	sw	a4,0(a5)
20000a2c:	400217b7          	lui	a5,0x40021
20000a30:	00478793          	addi	a5,a5,4 # 40021004 <__stack_top+0x200194c8>
20000a34:	0007a683          	lw	a3,0(a5)
20000a38:	400217b7          	lui	a5,0x40021
20000a3c:	00478793          	addi	a5,a5,4 # 40021004 <__stack_top+0x200194c8>
20000a40:	ffc10737          	lui	a4,0xffc10
20000a44:	fff70713          	addi	a4,a4,-1 # ffc0ffff <__stack_top+0xdfc084c3>
20000a48:	00e6f733          	and	a4,a3,a4
20000a4c:	00e7a023          	sw	a4,0(a5)
20000a50:	400217b7          	lui	a5,0x40021
20000a54:	00478793          	addi	a5,a5,4 # 40021004 <__stack_top+0x200194c8>
20000a58:	0007a683          	lw	a3,0(a5)
20000a5c:	400217b7          	lui	a5,0x40021
20000a60:	00478793          	addi	a5,a5,4 # 40021004 <__stack_top+0x200194c8>
20000a64:	00010737          	lui	a4,0x10
20000a68:	00e6e733          	or	a4,a3,a4
20000a6c:	00e7a023          	sw	a4,0(a5)
20000a70:	400217b7          	lui	a5,0x40021
20000a74:	0007a683          	lw	a3,0(a5) # 40021000 <__stack_top+0x200194c4>
20000a78:	400217b7          	lui	a5,0x40021
20000a7c:	01000737          	lui	a4,0x1000
20000a80:	00e6e733          	or	a4,a3,a4
20000a84:	00e7a023          	sw	a4,0(a5) # 40021000 <__stack_top+0x200194c4>
20000a88:	00000013          	nop
20000a8c:	400217b7          	lui	a5,0x40021
20000a90:	0007a703          	lw	a4,0(a5) # 40021000 <__stack_top+0x200194c4>
20000a94:	020007b7          	lui	a5,0x2000
20000a98:	00f777b3          	and	a5,a4,a5
20000a9c:	fe0788e3          	beqz	a5,20000a8c <_pll_init_144+0x1f4>
20000aa0:	400217b7          	lui	a5,0x40021
20000aa4:	00478793          	addi	a5,a5,4 # 40021004 <__stack_top+0x200194c8>
20000aa8:	0007a703          	lw	a4,0(a5)
20000aac:	400217b7          	lui	a5,0x40021
20000ab0:	00478793          	addi	a5,a5,4 # 40021004 <__stack_top+0x200194c8>
20000ab4:	ffc77713          	andi	a4,a4,-4
20000ab8:	00e7a023          	sw	a4,0(a5)
20000abc:	400217b7          	lui	a5,0x40021
20000ac0:	00478793          	addi	a5,a5,4 # 40021004 <__stack_top+0x200194c8>
20000ac4:	0007a703          	lw	a4,0(a5)
20000ac8:	400217b7          	lui	a5,0x40021
20000acc:	00478793          	addi	a5,a5,4 # 40021004 <__stack_top+0x200194c8>
20000ad0:	00276713          	ori	a4,a4,2
20000ad4:	00e7a023          	sw	a4,0(a5)
20000ad8:	00000013          	nop
20000adc:	400217b7          	lui	a5,0x40021
20000ae0:	00478793          	addi	a5,a5,4 # 40021004 <__stack_top+0x200194c8>
20000ae4:	0007a783          	lw	a5,0(a5)
20000ae8:	00c7f713          	andi	a4,a5,12
20000aec:	00800793          	li	a5,8
20000af0:	fef716e3          	bne	a4,a5,20000adc <_pll_init_144+0x244>
20000af4:	00000793          	li	a5,0
20000af8:	00078513          	mv	a0,a5
20000afc:	01c12083          	lw	ra,28(sp)
20000b00:	01812403          	lw	s0,24(sp)
20000b04:	02010113          	addi	sp,sp,32
20000b08:	00008067          	ret

20000b0c <crt_timer_interrupt>:
20000b0c:	fd010113          	addi	sp,sp,-48
20000b10:	02112623          	sw	ra,44(sp)
20000b14:	02512423          	sw	t0,40(sp)
20000b18:	02812223          	sw	s0,36(sp)
20000b1c:	02a12023          	sw	a0,32(sp)
20000b20:	00b12e23          	sw	a1,28(sp)
20000b24:	00c12c23          	sw	a2,24(sp)
20000b28:	00d12a23          	sw	a3,20(sp)
20000b2c:	00e12823          	sw	a4,16(sp)
20000b30:	00f12623          	sw	a5,12(sp)
20000b34:	01012423          	sw	a6,8(sp)
20000b38:	03010413          	addi	s0,sp,48
20000b3c:	400017b7          	lui	a5,0x40001
20000b40:	0107d783          	lhu	a5,16(a5) # 40001010 <__stack_top+0x1fff94d4>
20000b44:	01079713          	slli	a4,a5,0x10
20000b48:	01075713          	srli	a4,a4,0x10
20000b4c:	400017b7          	lui	a5,0x40001
20000b50:	ffe77713          	andi	a4,a4,-2
20000b54:	01071713          	slli	a4,a4,0x10
20000b58:	01075713          	srli	a4,a4,0x10
20000b5c:	00e79823          	sh	a4,16(a5) # 40001010 <__stack_top+0x1fff94d4>
20000b60:	200077b7          	lui	a5,0x20007
20000b64:	dc87a703          	lw	a4,-568(a5) # 20006dc8 <current_time>
20000b68:	dcc7a783          	lw	a5,-564(a5)
20000b6c:	00100513          	li	a0,1
20000b70:	00000593          	li	a1,0
20000b74:	00a70633          	add	a2,a4,a0
20000b78:	00060813          	mv	a6,a2
20000b7c:	00e83833          	sltu	a6,a6,a4
20000b80:	00b786b3          	add	a3,a5,a1
20000b84:	00d807b3          	add	a5,a6,a3
20000b88:	00078693          	mv	a3,a5
20000b8c:	00060713          	mv	a4,a2
20000b90:	00068793          	mv	a5,a3
20000b94:	200076b7          	lui	a3,0x20007
20000b98:	dce6a423          	sw	a4,-568(a3) # 20006dc8 <current_time>
20000b9c:	dcf6a623          	sw	a5,-564(a3)
20000ba0:	00000013          	nop
20000ba4:	02c12083          	lw	ra,44(sp)
20000ba8:	02812283          	lw	t0,40(sp)
20000bac:	02412403          	lw	s0,36(sp)
20000bb0:	02012503          	lw	a0,32(sp)
20000bb4:	01c12583          	lw	a1,28(sp)
20000bb8:	01812603          	lw	a2,24(sp)
20000bbc:	01412683          	lw	a3,20(sp)
20000bc0:	01012703          	lw	a4,16(sp)
20000bc4:	00c12783          	lw	a5,12(sp)
20000bc8:	00812803          	lw	a6,8(sp)
20000bcc:	03010113          	addi	sp,sp,48
20000bd0:	30200073          	mret

20000bd4 <_times>:
20000bd4:	fe010113          	addi	sp,sp,-32
20000bd8:	00112e23          	sw	ra,28(sp)
20000bdc:	00812c23          	sw	s0,24(sp)
20000be0:	02010413          	addi	s0,sp,32
20000be4:	fea42623          	sw	a0,-20(s0)
20000be8:	200077b7          	lui	a5,0x20007
20000bec:	dc87a703          	lw	a4,-568(a5) # 20006dc8 <current_time>
20000bf0:	dcc7a783          	lw	a5,-564(a5)
20000bf4:	fec42783          	lw	a5,-20(s0)
20000bf8:	00e7a223          	sw	a4,4(a5)
20000bfc:	fec42783          	lw	a5,-20(s0)
20000c00:	0047a703          	lw	a4,4(a5)
20000c04:	fec42783          	lw	a5,-20(s0)
20000c08:	00e7a023          	sw	a4,0(a5)
20000c0c:	200077b7          	lui	a5,0x20007
20000c10:	dc87a703          	lw	a4,-568(a5) # 20006dc8 <current_time>
20000c14:	dcc7a783          	lw	a5,-564(a5)
20000c18:	00070793          	mv	a5,a4
20000c1c:	00078513          	mv	a0,a5
20000c20:	01c12083          	lw	ra,28(sp)
20000c24:	01812403          	lw	s0,24(sp)
20000c28:	02010113          	addi	sp,sp,32
20000c2c:	00008067          	ret

20000c30 <_gettimeofday>:
20000c30:	fd010113          	addi	sp,sp,-48
20000c34:	02112623          	sw	ra,44(sp)
20000c38:	02812423          	sw	s0,40(sp)
20000c3c:	03010413          	addi	s0,sp,48
20000c40:	fca42e23          	sw	a0,-36(s0)
20000c44:	fcb42c23          	sw	a1,-40(s0)
20000c48:	200077b7          	lui	a5,0x20007
20000c4c:	dc87a703          	lw	a4,-568(a5) # 20006dc8 <current_time>
20000c50:	dcc7a783          	lw	a5,-564(a5)
20000c54:	fee42423          	sw	a4,-24(s0)
20000c58:	fef42623          	sw	a5,-20(s0)
20000c5c:	fe842703          	lw	a4,-24(s0)
20000c60:	fec42783          	lw	a5,-20(s0)
20000c64:	06400613          	li	a2,100
20000c68:	00000693          	li	a3,0
20000c6c:	00070513          	mv	a0,a4
20000c70:	00078593          	mv	a1,a5
20000c74:	1ec030ef          	jal	20003e60 <__udivdi3>
20000c78:	00050713          	mv	a4,a0
20000c7c:	00058793          	mv	a5,a1
20000c80:	fdc42683          	lw	a3,-36(s0)
20000c84:	00e6a023          	sw	a4,0(a3)
20000c88:	00f6a223          	sw	a5,4(a3)
20000c8c:	fe842703          	lw	a4,-24(s0)
20000c90:	fec42783          	lw	a5,-20(s0)
20000c94:	06400613          	li	a2,100
20000c98:	00000693          	li	a3,0
20000c9c:	00070513          	mv	a0,a4
20000ca0:	00078593          	mv	a1,a5
20000ca4:	624030ef          	jal	200042c8 <__umoddi3>
20000ca8:	00050713          	mv	a4,a0
20000cac:	00058793          	mv	a5,a1
20000cb0:	fdc42783          	lw	a5,-36(s0)
20000cb4:	00e7a423          	sw	a4,8(a5)
20000cb8:	00000793          	li	a5,0
20000cbc:	00078513          	mv	a0,a5
20000cc0:	02c12083          	lw	ra,44(sp)
20000cc4:	02812403          	lw	s0,40(sp)
20000cc8:	03010113          	addi	sp,sp,48
20000ccc:	00008067          	ret

20000cd0 <_settimeofday>:
20000cd0:	fe010113          	addi	sp,sp,-32
20000cd4:	00112e23          	sw	ra,28(sp)
20000cd8:	00812c23          	sw	s0,24(sp)
20000cdc:	02010413          	addi	s0,sp,32
20000ce0:	fea42623          	sw	a0,-20(s0)
20000ce4:	feb42423          	sw	a1,-24(s0)
20000ce8:	fec42783          	lw	a5,-20(s0)
20000cec:	0007a703          	lw	a4,0(a5)
20000cf0:	0047a783          	lw	a5,4(a5)
20000cf4:	06400593          	li	a1,100
20000cf8:	02b78533          	mul	a0,a5,a1
20000cfc:	00000593          	li	a1,0
20000d00:	02b705b3          	mul	a1,a4,a1
20000d04:	00b50533          	add	a0,a0,a1
20000d08:	06400593          	li	a1,100
20000d0c:	02b70333          	mul	t1,a4,a1
20000d10:	02b738b3          	mulhu	a7,a4,a1
20000d14:	00030813          	mv	a6,t1
20000d18:	011507b3          	add	a5,a0,a7
20000d1c:	00078893          	mv	a7,a5
20000d20:	00080713          	mv	a4,a6
20000d24:	00088793          	mv	a5,a7
20000d28:	200075b7          	lui	a1,0x20007
20000d2c:	dce5a423          	sw	a4,-568(a1) # 20006dc8 <current_time>
20000d30:	dcf5a623          	sw	a5,-564(a1)
20000d34:	fec42783          	lw	a5,-20(s0)
20000d38:	0087a783          	lw	a5,8(a5)
20000d3c:	00078613          	mv	a2,a5
20000d40:	41f7d793          	srai	a5,a5,0x1f
20000d44:	00078693          	mv	a3,a5
20000d48:	200077b7          	lui	a5,0x20007
20000d4c:	dc87a503          	lw	a0,-568(a5) # 20006dc8 <current_time>
20000d50:	dcc7a583          	lw	a1,-564(a5)
20000d54:	00a60733          	add	a4,a2,a0
20000d58:	00070813          	mv	a6,a4
20000d5c:	00c83833          	sltu	a6,a6,a2
20000d60:	00b687b3          	add	a5,a3,a1
20000d64:	00f806b3          	add	a3,a6,a5
20000d68:	00068793          	mv	a5,a3
20000d6c:	200076b7          	lui	a3,0x20007
20000d70:	dce6a423          	sw	a4,-568(a3) # 20006dc8 <current_time>
20000d74:	dcf6a623          	sw	a5,-564(a3)
20000d78:	00000793          	li	a5,0
20000d7c:	00078513          	mv	a0,a5
20000d80:	01c12083          	lw	ra,28(sp)
20000d84:	01812403          	lw	s0,24(sp)
20000d88:	02010113          	addi	sp,sp,32
20000d8c:	00008067          	ret

20000d90 <_tstchar>:
20000d90:	ff010113          	addi	sp,sp,-16
20000d94:	00112623          	sw	ra,12(sp)
20000d98:	00812423          	sw	s0,8(sp)
20000d9c:	01010413          	addi	s0,sp,16
20000da0:	400147b7          	lui	a5,0x40014
20000da4:	80078793          	addi	a5,a5,-2048 # 40013800 <__stack_top+0x2000bcc4>
20000da8:	0007d783          	lhu	a5,0(a5)
20000dac:	01079793          	slli	a5,a5,0x10
20000db0:	0107d793          	srli	a5,a5,0x10
20000db4:	0207f793          	andi	a5,a5,32
20000db8:	02078063          	beqz	a5,20000dd8 <_tstchar+0x48>
20000dbc:	400147b7          	lui	a5,0x40014
20000dc0:	80078793          	addi	a5,a5,-2048 # 40013800 <__stack_top+0x2000bcc4>
20000dc4:	0047d783          	lhu	a5,4(a5)
20000dc8:	01079793          	slli	a5,a5,0x10
20000dcc:	0107d793          	srli	a5,a5,0x10
20000dd0:	0ff7f793          	zext.b	a5,a5
20000dd4:	0080006f          	j	20000ddc <_tstchar+0x4c>
20000dd8:	00000793          	li	a5,0
20000ddc:	00078513          	mv	a0,a5
20000de0:	00c12083          	lw	ra,12(sp)
20000de4:	00812403          	lw	s0,8(sp)
20000de8:	01010113          	addi	sp,sp,16
20000dec:	00008067          	ret

20000df0 <_outchar>:
20000df0:	fe010113          	addi	sp,sp,-32
20000df4:	00112e23          	sw	ra,28(sp)
20000df8:	00812c23          	sw	s0,24(sp)
20000dfc:	02010413          	addi	s0,sp,32
20000e00:	00050793          	mv	a5,a0
20000e04:	fef407a3          	sb	a5,-17(s0)
20000e08:	400147b7          	lui	a5,0x40014
20000e0c:	80078793          	addi	a5,a5,-2048 # 40013800 <__stack_top+0x2000bcc4>
20000e10:	fef44703          	lbu	a4,-17(s0)
20000e14:	01071713          	slli	a4,a4,0x10
20000e18:	01075713          	srli	a4,a4,0x10
20000e1c:	00e79223          	sh	a4,4(a5)
20000e20:	00000013          	nop
20000e24:	400147b7          	lui	a5,0x40014
20000e28:	80078793          	addi	a5,a5,-2048 # 40013800 <__stack_top+0x2000bcc4>
20000e2c:	0007d783          	lhu	a5,0(a5)
20000e30:	01079793          	slli	a5,a5,0x10
20000e34:	0107d793          	srli	a5,a5,0x10
20000e38:	0807f793          	andi	a5,a5,128
20000e3c:	fe0784e3          	beqz	a5,20000e24 <_outchar+0x34>
20000e40:	00000013          	nop
20000e44:	00000013          	nop
20000e48:	01c12083          	lw	ra,28(sp)
20000e4c:	01812403          	lw	s0,24(sp)
20000e50:	02010113          	addi	sp,sp,32
20000e54:	00008067          	ret

20000e58 <_sbrk>:
20000e58:	fd010113          	addi	sp,sp,-48
20000e5c:	02112623          	sw	ra,44(sp)
20000e60:	02812423          	sw	s0,40(sp)
20000e64:	03010413          	addi	s0,sp,48
20000e68:	fca42e23          	sw	a0,-36(s0)
20000e6c:	200077b7          	lui	a5,0x20007
20000e70:	dd07a783          	lw	a5,-560(a5) # 20006dd0 <heap_end>
20000e74:	00079a63          	bnez	a5,20000e88 <_sbrk+0x30>
20000e78:	200077b7          	lui	a5,0x20007
20000e7c:	20007737          	lui	a4,0x20007
20000e80:	f3c70713          	addi	a4,a4,-196 # 20006f3c <__bss_end__>
20000e84:	dce7a823          	sw	a4,-560(a5) # 20006dd0 <heap_end>
20000e88:	200077b7          	lui	a5,0x20007
20000e8c:	dd07a783          	lw	a5,-560(a5) # 20006dd0 <heap_end>
20000e90:	fef42623          	sw	a5,-20(s0)
20000e94:	200077b7          	lui	a5,0x20007
20000e98:	dd07a703          	lw	a4,-560(a5) # 20006dd0 <heap_end>
20000e9c:	fdc42783          	lw	a5,-36(s0)
20000ea0:	00f70733          	add	a4,a4,a5
20000ea4:	200077b7          	lui	a5,0x20007
20000ea8:	73c78793          	addi	a5,a5,1852 # 2000773c <__heap_top>
20000eac:	00e7fe63          	bgeu	a5,a4,20000ec8 <_sbrk+0x70>
20000eb0:	341030ef          	jal	200049f0 <__errno>
20000eb4:	00050713          	mv	a4,a0
20000eb8:	00c00793          	li	a5,12
20000ebc:	00f72023          	sw	a5,0(a4)
20000ec0:	fff00793          	li	a5,-1
20000ec4:	0200006f          	j	20000ee4 <_sbrk+0x8c>
20000ec8:	200077b7          	lui	a5,0x20007
20000ecc:	dd07a703          	lw	a4,-560(a5) # 20006dd0 <heap_end>
20000ed0:	fdc42783          	lw	a5,-36(s0)
20000ed4:	00f70733          	add	a4,a4,a5
20000ed8:	200077b7          	lui	a5,0x20007
20000edc:	dce7a823          	sw	a4,-560(a5) # 20006dd0 <heap_end>
20000ee0:	fec42783          	lw	a5,-20(s0)
20000ee4:	00078513          	mv	a0,a5
20000ee8:	02c12083          	lw	ra,44(sp)
20000eec:	02812403          	lw	s0,40(sp)
20000ef0:	03010113          	addi	sp,sp,48
20000ef4:	00008067          	ret

20000ef8 <_crt_init>:
20000ef8:	fe010113          	addi	sp,sp,-32
20000efc:	00112e23          	sw	ra,28(sp)
20000f00:	00812c23          	sw	s0,24(sp)
20000f04:	02010413          	addi	s0,sp,32
20000f08:	00000013          	nop
20000f0c:	98dff0ef          	jal	20000898 <_pll_init_144>
20000f10:	00050793          	mv	a5,a0
20000f14:	fe079ce3          	bnez	a5,20000f0c <_crt_init+0x14>
20000f18:	400217b7          	lui	a5,0x40021
20000f1c:	0187a683          	lw	a3,24(a5) # 40021018 <__stack_top+0x200194dc>
20000f20:	400217b7          	lui	a5,0x40021
20000f24:	00004737          	lui	a4,0x4
20000f28:	00e6e733          	or	a4,a3,a4
20000f2c:	00e7ac23          	sw	a4,24(a5) # 40021018 <__stack_top+0x200194dc>
20000f30:	400217b7          	lui	a5,0x40021
20000f34:	0187a703          	lw	a4,24(a5) # 40021018 <__stack_top+0x200194dc>
20000f38:	400217b7          	lui	a5,0x40021
20000f3c:	00476713          	ori	a4,a4,4
20000f40:	00e7ac23          	sw	a4,24(a5) # 40021018 <__stack_top+0x200194dc>
20000f44:	400217b7          	lui	a5,0x40021
20000f48:	0187a703          	lw	a4,24(a5) # 40021018 <__stack_top+0x200194dc>
20000f4c:	400217b7          	lui	a5,0x40021
20000f50:	00176713          	ori	a4,a4,1
20000f54:	00e7ac23          	sw	a4,24(a5) # 40021018 <__stack_top+0x200194dc>
20000f58:	400217b7          	lui	a5,0x40021
20000f5c:	0187a703          	lw	a4,24(a5) # 40021018 <__stack_top+0x200194dc>
20000f60:	400217b7          	lui	a5,0x40021
20000f64:	02076713          	ori	a4,a4,32
20000f68:	00e7ac23          	sw	a4,24(a5) # 40021018 <__stack_top+0x200194dc>
20000f6c:	400217b7          	lui	a5,0x40021
20000f70:	0187a703          	lw	a4,24(a5) # 40021018 <__stack_top+0x200194dc>
20000f74:	400217b7          	lui	a5,0x40021
20000f78:	04076713          	ori	a4,a4,64
20000f7c:	00e7ac23          	sw	a4,24(a5) # 40021018 <__stack_top+0x200194dc>
20000f80:	400217b7          	lui	a5,0x40021
20000f84:	00c7a683          	lw	a3,12(a5) # 4002100c <__stack_top+0x200194d0>
20000f88:	400217b7          	lui	a5,0x40021
20000f8c:	00004737          	lui	a4,0x4
20000f90:	06070713          	addi	a4,a4,96 # 4060 <_start-0x1fffbfa0>
20000f94:	00e6e733          	or	a4,a3,a4
20000f98:	00e7a623          	sw	a4,12(a5) # 4002100c <__stack_top+0x200194d0>
20000f9c:	400217b7          	lui	a5,0x40021
20000fa0:	00c7a683          	lw	a3,12(a5) # 4002100c <__stack_top+0x200194d0>
20000fa4:	400217b7          	lui	a5,0x40021
20000fa8:	ffffc737          	lui	a4,0xffffc
20000fac:	f9f70713          	addi	a4,a4,-97 # ffffbf9f <__stack_top+0xdfff4463>
20000fb0:	00e6f733          	and	a4,a3,a4
20000fb4:	00e7a623          	sw	a4,12(a5) # 4002100c <__stack_top+0x200194d0>
20000fb8:	400117b7          	lui	a5,0x40011
20000fbc:	80478793          	addi	a5,a5,-2044 # 40010804 <__stack_top+0x20008cc8>
20000fc0:	0007a703          	lw	a4,0(a5)
20000fc4:	400117b7          	lui	a5,0x40011
20000fc8:	80478793          	addi	a5,a5,-2044 # 40010804 <__stack_top+0x20008cc8>
20000fcc:	0b076713          	ori	a4,a4,176
20000fd0:	00e7a023          	sw	a4,0(a5)
20000fd4:	400117b7          	lui	a5,0x40011
20000fd8:	80478793          	addi	a5,a5,-2044 # 40010804 <__stack_top+0x20008cc8>
20000fdc:	0007a703          	lw	a4,0(a5)
20000fe0:	400117b7          	lui	a5,0x40011
20000fe4:	80478793          	addi	a5,a5,-2044 # 40010804 <__stack_top+0x20008cc8>
20000fe8:	40076713          	ori	a4,a4,1024
20000fec:	00e7a023          	sw	a4,0(a5)
20000ff0:	400147b7          	lui	a5,0x40014
20000ff4:	80078793          	addi	a5,a5,-2048 # 40013800 <__stack_top+0x2000bcc4>
20000ff8:	4e200713          	li	a4,1250
20000ffc:	00e79423          	sh	a4,8(a5)
20001000:	400147b7          	lui	a5,0x40014
20001004:	80078793          	addi	a5,a5,-2048 # 40013800 <__stack_top+0x2000bcc4>
20001008:	00002737          	lui	a4,0x2
2000100c:	00c70713          	addi	a4,a4,12 # 200c <_start-0x1fffdff4>
20001010:	00e79623          	sh	a4,12(a5)
20001014:	400217b7          	lui	a5,0x40021
20001018:	01c7a703          	lw	a4,28(a5) # 4002101c <__stack_top+0x200194e0>
2000101c:	400217b7          	lui	a5,0x40021
20001020:	01076713          	ori	a4,a4,16
20001024:	00e7ae23          	sw	a4,28(a5) # 4002101c <__stack_top+0x200194e0>
20001028:	400217b7          	lui	a5,0x40021
2000102c:	0107a703          	lw	a4,16(a5) # 40021010 <__stack_top+0x200194d4>
20001030:	400217b7          	lui	a5,0x40021
20001034:	01076713          	ori	a4,a4,16
20001038:	00e7a823          	sw	a4,16(a5) # 40021010 <__stack_top+0x200194d4>
2000103c:	400217b7          	lui	a5,0x40021
20001040:	0107a703          	lw	a4,16(a5) # 40021010 <__stack_top+0x200194d4>
20001044:	400217b7          	lui	a5,0x40021
20001048:	fef77713          	andi	a4,a4,-17
2000104c:	00e7a823          	sw	a4,16(a5) # 40021010 <__stack_top+0x200194d4>
20001050:	400217b7          	lui	a5,0x40021
20001054:	01c7a703          	lw	a4,28(a5) # 4002101c <__stack_top+0x200194e0>
20001058:	400217b7          	lui	a5,0x40021
2000105c:	02076713          	ori	a4,a4,32
20001060:	00e7ae23          	sw	a4,28(a5) # 4002101c <__stack_top+0x200194e0>
20001064:	400217b7          	lui	a5,0x40021
20001068:	0107a703          	lw	a4,16(a5) # 40021010 <__stack_top+0x200194d4>
2000106c:	400217b7          	lui	a5,0x40021
20001070:	02076713          	ori	a4,a4,32
20001074:	00e7a823          	sw	a4,16(a5) # 40021010 <__stack_top+0x200194d4>
20001078:	400217b7          	lui	a5,0x40021
2000107c:	0107a703          	lw	a4,16(a5) # 40021010 <__stack_top+0x200194d4>
20001080:	400217b7          	lui	a5,0x40021
20001084:	fdf77713          	andi	a4,a4,-33
20001088:	00e7a823          	sw	a4,16(a5) # 40021010 <__stack_top+0x200194d4>
2000108c:	200077b7          	lui	a5,0x20007
20001090:	dc07a823          	sw	zero,-560(a5) # 20006dd0 <heap_end>
20001094:	200077b7          	lui	a5,0x20007
20001098:	dc878793          	addi	a5,a5,-568 # 20006dc8 <current_time>
2000109c:	fef42623          	sw	a5,-20(s0)
200010a0:	200077b7          	lui	a5,0x20007
200010a4:	f3c78793          	addi	a5,a5,-196 # 20006f3c <__bss_end__>
200010a8:	fef42423          	sw	a5,-24(s0)
200010ac:	0140006f          	j	200010c0 <_crt_init+0x1c8>
200010b0:	fec42783          	lw	a5,-20(s0)
200010b4:	00178713          	addi	a4,a5,1
200010b8:	fee42623          	sw	a4,-20(s0)
200010bc:	00078023          	sb	zero,0(a5)
200010c0:	fec42703          	lw	a4,-20(s0)
200010c4:	fe842783          	lw	a5,-24(s0)
200010c8:	fef764e3          	bltu	a4,a5,200010b0 <_crt_init+0x1b8>
200010cc:	200077b7          	lui	a5,0x20007
200010d0:	dc07a783          	lw	a5,-576(a5) # 20006dc0 <_impure_ptr>
200010d4:	0047a783          	lw	a5,4(a5)
200010d8:	00000693          	li	a3,0
200010dc:	00200613          	li	a2,2
200010e0:	00000593          	li	a1,0
200010e4:	00078513          	mv	a0,a5
200010e8:	714030ef          	jal	200047fc <setvbuf>
200010ec:	200077b7          	lui	a5,0x20007
200010f0:	dc07a783          	lw	a5,-576(a5) # 20006dc0 <_impure_ptr>
200010f4:	0087a783          	lw	a5,8(a5)
200010f8:	00000693          	li	a3,0
200010fc:	00200613          	li	a2,2
20001100:	00000593          	li	a1,0
20001104:	00078513          	mv	a0,a5
20001108:	6f4030ef          	jal	200047fc <setvbuf>
2000110c:	200077b7          	lui	a5,0x20007
20001110:	dc07a783          	lw	a5,-576(a5) # 20006dc0 <_impure_ptr>
20001114:	00c7a783          	lw	a5,12(a5)
20001118:	00000693          	li	a3,0
2000111c:	00200613          	li	a2,2
20001120:	00000593          	li	a1,0
20001124:	00078513          	mv	a0,a5
20001128:	6d4030ef          	jal	200047fc <setvbuf>
2000112c:	00000013          	nop
20001130:	01c12083          	lw	ra,28(sp)
20001134:	01812403          	lw	s0,24(sp)
20001138:	02010113          	addi	sp,sp,32
2000113c:	00008067          	ret

20001140 <_crt_deinit>:
20001140:	ff010113          	addi	sp,sp,-16
20001144:	00112623          	sw	ra,12(sp)
20001148:	00812423          	sw	s0,8(sp)
2000114c:	01010413          	addi	s0,sp,16
20001150:	00000013          	nop
20001154:	00c12083          	lw	ra,12(sp)
20001158:	00812403          	lw	s0,8(sp)
2000115c:	01010113          	addi	sp,sp,16
20001160:	00008067          	ret

20001164 <_exit>:
20001164:	fe010113          	addi	sp,sp,-32
20001168:	00112e23          	sw	ra,28(sp)
2000116c:	00812c23          	sw	s0,24(sp)
20001170:	02010413          	addi	s0,sp,32
20001174:	fea42623          	sw	a0,-20(s0)
20001178:	fec42783          	lw	a5,-20(s0)
2000117c:	00078a63          	beqz	a5,20001190 <_exit+0x2c>
20001180:	fec42583          	lw	a1,-20(s0)
20001184:	200077b7          	lui	a5,0x20007
20001188:	b6478513          	addi	a0,a5,-1180 # 20006b64 <_malloc_usable_size_r+0x1c>
2000118c:	620030ef          	jal	200047ac <iprintf>
20001190:	fb1ff0ef          	jal	20001140 <_crt_deinit>
20001194:	00000013          	nop
20001198:	01c12083          	lw	ra,28(sp)
2000119c:	01812403          	lw	s0,24(sp)
200011a0:	02010113          	addi	sp,sp,32
200011a4:	00008067          	ret

200011a8 <_close>:
200011a8:	fe010113          	addi	sp,sp,-32
200011ac:	00112e23          	sw	ra,28(sp)
200011b0:	00812c23          	sw	s0,24(sp)
200011b4:	02010413          	addi	s0,sp,32
200011b8:	fea42623          	sw	a0,-20(s0)
200011bc:	fff00793          	li	a5,-1
200011c0:	00078513          	mv	a0,a5
200011c4:	01c12083          	lw	ra,28(sp)
200011c8:	01812403          	lw	s0,24(sp)
200011cc:	02010113          	addi	sp,sp,32
200011d0:	00008067          	ret

200011d4 <_open>:
200011d4:	fe010113          	addi	sp,sp,-32
200011d8:	00112e23          	sw	ra,28(sp)
200011dc:	00812c23          	sw	s0,24(sp)
200011e0:	02010413          	addi	s0,sp,32
200011e4:	fea42623          	sw	a0,-20(s0)
200011e8:	feb42423          	sw	a1,-24(s0)
200011ec:	fec42223          	sw	a2,-28(s0)
200011f0:	fff00793          	li	a5,-1
200011f4:	00078513          	mv	a0,a5
200011f8:	01c12083          	lw	ra,28(sp)
200011fc:	01812403          	lw	s0,24(sp)
20001200:	02010113          	addi	sp,sp,32
20001204:	00008067          	ret

20001208 <_fstat>:
20001208:	fe010113          	addi	sp,sp,-32
2000120c:	00112e23          	sw	ra,28(sp)
20001210:	00812c23          	sw	s0,24(sp)
20001214:	02010413          	addi	s0,sp,32
20001218:	fea42623          	sw	a0,-20(s0)
2000121c:	feb42423          	sw	a1,-24(s0)
20001220:	fe842783          	lw	a5,-24(s0)
20001224:	00002737          	lui	a4,0x2
20001228:	00e7a223          	sw	a4,4(a5)
2000122c:	00000793          	li	a5,0
20001230:	00078513          	mv	a0,a5
20001234:	01c12083          	lw	ra,28(sp)
20001238:	01812403          	lw	s0,24(sp)
2000123c:	02010113          	addi	sp,sp,32
20001240:	00008067          	ret

20001244 <_lseek>:
20001244:	fe010113          	addi	sp,sp,-32
20001248:	00112e23          	sw	ra,28(sp)
2000124c:	00812c23          	sw	s0,24(sp)
20001250:	02010413          	addi	s0,sp,32
20001254:	fea42623          	sw	a0,-20(s0)
20001258:	feb42423          	sw	a1,-24(s0)
2000125c:	fec42223          	sw	a2,-28(s0)
20001260:	00000793          	li	a5,0
20001264:	00078513          	mv	a0,a5
20001268:	01c12083          	lw	ra,28(sp)
2000126c:	01812403          	lw	s0,24(sp)
20001270:	02010113          	addi	sp,sp,32
20001274:	00008067          	ret

20001278 <_isatty>:
20001278:	fe010113          	addi	sp,sp,-32
2000127c:	00112e23          	sw	ra,28(sp)
20001280:	00812c23          	sw	s0,24(sp)
20001284:	02010413          	addi	s0,sp,32
20001288:	fea42623          	sw	a0,-20(s0)
2000128c:	00000793          	li	a5,0
20001290:	00078513          	mv	a0,a5
20001294:	01c12083          	lw	ra,28(sp)
20001298:	01812403          	lw	s0,24(sp)
2000129c:	02010113          	addi	sp,sp,32
200012a0:	00008067          	ret

200012a4 <_write>:
200012a4:	fd010113          	addi	sp,sp,-48
200012a8:	02112623          	sw	ra,44(sp)
200012ac:	02812423          	sw	s0,40(sp)
200012b0:	03010413          	addi	s0,sp,48
200012b4:	fca42e23          	sw	a0,-36(s0)
200012b8:	fcb42c23          	sw	a1,-40(s0)
200012bc:	fcc42a23          	sw	a2,-44(s0)
200012c0:	fd442783          	lw	a5,-44(s0)
200012c4:	fef42623          	sw	a5,-20(s0)
200012c8:	01c0006f          	j	200012e4 <_write+0x40>
200012cc:	fd842783          	lw	a5,-40(s0)
200012d0:	00178713          	addi	a4,a5,1
200012d4:	fce42c23          	sw	a4,-40(s0)
200012d8:	0007c783          	lbu	a5,0(a5)
200012dc:	00078513          	mv	a0,a5
200012e0:	b11ff0ef          	jal	20000df0 <_outchar>
200012e4:	fd442783          	lw	a5,-44(s0)
200012e8:	fff78713          	addi	a4,a5,-1
200012ec:	fce42a23          	sw	a4,-44(s0)
200012f0:	fc079ee3          	bnez	a5,200012cc <_write+0x28>
200012f4:	fec42783          	lw	a5,-20(s0)
200012f8:	00078513          	mv	a0,a5
200012fc:	02c12083          	lw	ra,44(sp)
20001300:	02812403          	lw	s0,40(sp)
20001304:	03010113          	addi	sp,sp,48
20001308:	00008067          	ret

2000130c <_read>:
2000130c:	fd010113          	addi	sp,sp,-48
20001310:	02112623          	sw	ra,44(sp)
20001314:	02812423          	sw	s0,40(sp)
20001318:	03010413          	addi	s0,sp,48
2000131c:	fca42e23          	sw	a0,-36(s0)
20001320:	fcb42c23          	sw	a1,-40(s0)
20001324:	fcc42a23          	sw	a2,-44(s0)
20001328:	fe042623          	sw	zero,-20(s0)
2000132c:	a65ff0ef          	jal	20000d90 <_tstchar>
20001330:	00050793          	mv	a5,a0
20001334:	fef405a3          	sb	a5,-21(s0)
20001338:	feb44783          	lbu	a5,-21(s0)
2000133c:	02078263          	beqz	a5,20001360 <_read+0x54>
20001340:	fd842783          	lw	a5,-40(s0)
20001344:	00178713          	addi	a4,a5,1
20001348:	fce42c23          	sw	a4,-40(s0)
2000134c:	feb44703          	lbu	a4,-21(s0)
20001350:	00e78023          	sb	a4,0(a5)
20001354:	fec42783          	lw	a5,-20(s0)
20001358:	00178793          	addi	a5,a5,1
2000135c:	fef42623          	sw	a5,-20(s0)
20001360:	fd442703          	lw	a4,-44(s0)
20001364:	fec42783          	lw	a5,-20(s0)
20001368:	fcf712e3          	bne	a4,a5,2000132c <_read+0x20>
2000136c:	fec42783          	lw	a5,-20(s0)
20001370:	00078513          	mv	a0,a5
20001374:	02c12083          	lw	ra,44(sp)
20001378:	02812403          	lw	s0,40(sp)
2000137c:	03010113          	addi	sp,sp,48
20001380:	00008067          	ret

20001384 <_getpid>:
20001384:	ff010113          	addi	sp,sp,-16
20001388:	00112623          	sw	ra,12(sp)
2000138c:	00812423          	sw	s0,8(sp)
20001390:	01010413          	addi	s0,sp,16
20001394:	00000793          	li	a5,0
20001398:	00078513          	mv	a0,a5
2000139c:	00c12083          	lw	ra,12(sp)
200013a0:	00812403          	lw	s0,8(sp)
200013a4:	01010113          	addi	sp,sp,16
200013a8:	00008067          	ret

200013ac <_kill>:
200013ac:	fe010113          	addi	sp,sp,-32
200013b0:	00112e23          	sw	ra,28(sp)
200013b4:	00812c23          	sw	s0,24(sp)
200013b8:	02010413          	addi	s0,sp,32
200013bc:	fea42623          	sw	a0,-20(s0)
200013c0:	feb42423          	sw	a1,-24(s0)
200013c4:	00000793          	li	a5,0
200013c8:	00078513          	mv	a0,a5
200013cc:	01c12083          	lw	ra,28(sp)
200013d0:	01812403          	lw	s0,24(sp)
200013d4:	02010113          	addi	sp,sp,32
200013d8:	00008067          	ret

200013dc <ecall>:
200013dc:	7131                	addi	sp,sp,-192
200013de:	df06                	sw	ra,188(sp)
200013e0:	dd16                	sw	t0,184(sp)
200013e2:	003022f3          	frcsr	t0
200013e6:	db16                	sw	t0,180(sp)
200013e8:	d91a                	sw	t1,176(sp)
200013ea:	d71e                	sw	t2,172(sp)
200013ec:	d522                	sw	s0,168(sp)
200013ee:	d32a                	sw	a0,164(sp)
200013f0:	d12e                	sw	a1,160(sp)
200013f2:	cf32                	sw	a2,156(sp)
200013f4:	cd36                	sw	a3,152(sp)
200013f6:	cb3a                	sw	a4,148(sp)
200013f8:	c93e                	sw	a5,144(sp)
200013fa:	c742                	sw	a6,140(sp)
200013fc:	c546                	sw	a7,136(sp)
200013fe:	c372                	sw	t3,132(sp)
20001400:	c176                	sw	t4,128(sp)
20001402:	defa                	sw	t5,124(sp)
20001404:	dcfe                	sw	t6,120(sp)
20001406:	ee82                	fsw	ft0,92(sp)
20001408:	ec86                	fsw	ft1,88(sp)
2000140a:	ea8a                	fsw	ft2,84(sp)
2000140c:	e88e                	fsw	ft3,80(sp)
2000140e:	e692                	fsw	ft4,76(sp)
20001410:	e496                	fsw	ft5,72(sp)
20001412:	e29a                	fsw	ft6,68(sp)
20001414:	e09e                	fsw	ft7,64(sp)
20001416:	fe2a                	fsw	fa0,60(sp)
20001418:	fc2e                	fsw	fa1,56(sp)
2000141a:	fa32                	fsw	fa2,52(sp)
2000141c:	f836                	fsw	fa3,48(sp)
2000141e:	f63a                	fsw	fa4,44(sp)
20001420:	f43e                	fsw	fa5,40(sp)
20001422:	f242                	fsw	fa6,36(sp)
20001424:	f046                	fsw	fa7,32(sp)
20001426:	ee72                	fsw	ft8,28(sp)
20001428:	ec76                	fsw	ft9,24(sp)
2000142a:	ea7a                	fsw	ft10,20(sp)
2000142c:	e87e                	fsw	ft11,16(sp)
2000142e:	0180                	addi	s0,sp,192
20001430:	87c6                	mv	a5,a7
20001432:	f4f42423          	sw	a5,-184(s0)
20001436:	f4842783          	lw	a5,-184(s0)
2000143a:	43dc                	lw	a5,4(a5)
2000143c:	f4f42623          	sw	a5,-180(s0)
20001440:	f4842783          	lw	a5,-184(s0)
20001444:	439c                	lw	a5,0(a5)
20001446:	04700713          	li	a4,71
2000144a:	1ae78263          	beq	a5,a4,200015ee <ecall+0x212>
2000144e:	04700713          	li	a4,71
20001452:	1cf74063          	blt	a4,a5,20001612 <ecall+0x236>
20001456:	04600713          	li	a4,70
2000145a:	16e78e63          	beq	a5,a4,200015d6 <ecall+0x1fa>
2000145e:	04600713          	li	a4,70
20001462:	1af74863          	blt	a4,a5,20001612 <ecall+0x236>
20001466:	03200713          	li	a4,50
2000146a:	16e78063          	beq	a5,a4,200015ca <ecall+0x1ee>
2000146e:	03200713          	li	a4,50
20001472:	1af74063          	blt	a4,a5,20001612 <ecall+0x236>
20001476:	4715                	li	a4,5
20001478:	12e78663          	beq	a5,a4,200015a4 <ecall+0x1c8>
2000147c:	4715                	li	a4,5
2000147e:	18f74a63          	blt	a4,a5,20001612 <ecall+0x236>
20001482:	4711                	li	a4,4
20001484:	0ee78d63          	beq	a5,a4,2000157e <ecall+0x1a2>
20001488:	4711                	li	a4,4
2000148a:	18f74463          	blt	a4,a5,20001612 <ecall+0x236>
2000148e:	470d                	li	a4,3
20001490:	0ae78c63          	beq	a5,a4,20001548 <ecall+0x16c>
20001494:	470d                	li	a4,3
20001496:	16f74e63          	blt	a4,a5,20001612 <ecall+0x236>
2000149a:	4709                	li	a4,2
2000149c:	06e78563          	beq	a5,a4,20001506 <ecall+0x12a>
200014a0:	4709                	li	a4,2
200014a2:	16f74863          	blt	a4,a5,20001612 <ecall+0x236>
200014a6:	c789                	beqz	a5,200014b0 <ecall+0xd4>
200014a8:	4705                	li	a4,1
200014aa:	00e78f63          	beq	a5,a4,200014c8 <ecall+0xec>
200014ae:	a295                	j	20001612 <ecall+0x236>
200014b0:	f4c42783          	lw	a5,-180(s0)
200014b4:	439c                	lw	a5,0(a5)
200014b6:	853e                	mv	a0,a5
200014b8:	102020ef          	jal	200035ba <_tft_init>
200014bc:	87aa                	mv	a5,a0
200014be:	873e                	mv	a4,a5
200014c0:	f4c42783          	lw	a5,-180(s0)
200014c4:	c398                	sw	a4,0(a5)
200014c6:	a2b1                	j	20001612 <ecall+0x236>
200014c8:	f4c42783          	lw	a5,-180(s0)
200014cc:	439c                	lw	a5,0(a5)
200014ce:	853e                	mv	a0,a5
200014d0:	f4c42783          	lw	a5,-180(s0)
200014d4:	0791                	addi	a5,a5,4
200014d6:	439c                	lw	a5,0(a5)
200014d8:	85be                	mv	a1,a5
200014da:	f4c42783          	lw	a5,-180(s0)
200014de:	07a1                	addi	a5,a5,8
200014e0:	439c                	lw	a5,0(a5)
200014e2:	863e                	mv	a2,a5
200014e4:	f4c42783          	lw	a5,-180(s0)
200014e8:	07b1                	addi	a5,a5,12
200014ea:	439c                	lw	a5,0(a5)
200014ec:	86be                	mv	a3,a5
200014ee:	f4c42783          	lw	a5,-180(s0)
200014f2:	07c1                	addi	a5,a5,16
200014f4:	439c                	lw	a5,0(a5)
200014f6:	873e                	mv	a4,a5
200014f8:	f4c42783          	lw	a5,-180(s0)
200014fc:	07d1                	addi	a5,a5,20
200014fe:	439c                	lw	a5,0(a5)
20001500:	4d9010ef          	jal	200031d8 <_tft_lcd_ellipse>
20001504:	a239                	j	20001612 <ecall+0x236>
20001506:	f4c42783          	lw	a5,-180(s0)
2000150a:	439c                	lw	a5,0(a5)
2000150c:	853e                	mv	a0,a5
2000150e:	f4c42783          	lw	a5,-180(s0)
20001512:	0791                	addi	a5,a5,4
20001514:	439c                	lw	a5,0(a5)
20001516:	85be                	mv	a1,a5
20001518:	f4c42783          	lw	a5,-180(s0)
2000151c:	07a1                	addi	a5,a5,8
2000151e:	439c                	lw	a5,0(a5)
20001520:	863e                	mv	a2,a5
20001522:	f4c42783          	lw	a5,-180(s0)
20001526:	07b1                	addi	a5,a5,12
20001528:	439c                	lw	a5,0(a5)
2000152a:	86be                	mv	a3,a5
2000152c:	f4c42783          	lw	a5,-180(s0)
20001530:	07c1                	addi	a5,a5,16
20001532:	439c                	lw	a5,0(a5)
20001534:	01079713          	slli	a4,a5,0x10
20001538:	8341                	srli	a4,a4,0x10
2000153a:	f4c42783          	lw	a5,-180(s0)
2000153e:	07d1                	addi	a5,a5,20
20001540:	439c                	lw	a5,0(a5)
20001542:	37d010ef          	jal	200030be <_tft_lcd_rect>
20001546:	a0f1                	j	20001612 <ecall+0x236>
20001548:	f4c42783          	lw	a5,-180(s0)
2000154c:	439c                	lw	a5,0(a5)
2000154e:	853e                	mv	a0,a5
20001550:	f4c42783          	lw	a5,-180(s0)
20001554:	0791                	addi	a5,a5,4
20001556:	439c                	lw	a5,0(a5)
20001558:	85be                	mv	a1,a5
2000155a:	f4c42783          	lw	a5,-180(s0)
2000155e:	07a1                	addi	a5,a5,8
20001560:	439c                	lw	a5,0(a5)
20001562:	863e                	mv	a2,a5
20001564:	f4c42783          	lw	a5,-180(s0)
20001568:	07b1                	addi	a5,a5,12
2000156a:	439c                	lw	a5,0(a5)
2000156c:	86be                	mv	a3,a5
2000156e:	f4c42783          	lw	a5,-180(s0)
20001572:	07c1                	addi	a5,a5,16
20001574:	439c                	lw	a5,0(a5)
20001576:	873e                	mv	a4,a5
20001578:	1d1010ef          	jal	20002f48 <_tft_lcd_line>
2000157c:	a859                	j	20001612 <ecall+0x236>
2000157e:	f4c42783          	lw	a5,-180(s0)
20001582:	439c                	lw	a5,0(a5)
20001584:	873e                	mv	a4,a5
20001586:	f4c42783          	lw	a5,-180(s0)
2000158a:	0791                	addi	a5,a5,4
2000158c:	439c                	lw	a5,0(a5)
2000158e:	86be                	mv	a3,a5
20001590:	f4c42783          	lw	a5,-180(s0)
20001594:	07a1                	addi	a5,a5,8
20001596:	439c                	lw	a5,0(a5)
20001598:	863e                	mv	a2,a5
2000159a:	85b6                	mv	a1,a3
2000159c:	853a                	mv	a0,a4
2000159e:	74f010ef          	jal	200034ec <_tft_lcd_crosshair>
200015a2:	a885                	j	20001612 <ecall+0x236>
200015a4:	f4c42783          	lw	a5,-180(s0)
200015a8:	439c                	lw	a5,0(a5)
200015aa:	873e                	mv	a4,a5
200015ac:	f4c42783          	lw	a5,-180(s0)
200015b0:	0791                	addi	a5,a5,4
200015b2:	439c                	lw	a5,0(a5)
200015b4:	86be                	mv	a3,a5
200015b6:	f4c42783          	lw	a5,-180(s0)
200015ba:	07a1                	addi	a5,a5,8
200015bc:	439c                	lw	a5,0(a5)
200015be:	863e                	mv	a2,a5
200015c0:	85b6                	mv	a1,a3
200015c2:	853a                	mv	a0,a4
200015c4:	133010ef          	jal	20002ef6 <_tft_lcd_pixel>
200015c8:	a0a9                	j	20001612 <ecall+0x236>
200015ca:	f4c42783          	lw	a5,-180(s0)
200015ce:	439c                	lw	a5,0(a5)
200015d0:	853e                	mv	a0,a5
200015d2:	251d                	jal	20001bf8 <_delay_ms>
200015d4:	a83d                	j	20001612 <ecall+0x236>
200015d6:	f4c42783          	lw	a5,-180(s0)
200015da:	439c                	lw	a5,0(a5)
200015dc:	853e                	mv	a0,a5
200015de:	749000ef          	jal	20002526 <_tft_tp_scan>
200015e2:	87aa                	mv	a5,a0
200015e4:	873e                	mv	a4,a5
200015e6:	f4c42783          	lw	a5,-180(s0)
200015ea:	c398                	sw	a4,0(a5)
200015ec:	a01d                	j	20001612 <ecall+0x236>
200015ee:	f4c42783          	lw	a5,-180(s0)
200015f2:	439c                	lw	a5,0(a5)
200015f4:	873e                	mv	a4,a5
200015f6:	f4c42783          	lw	a5,-180(s0)
200015fa:	0791                	addi	a5,a5,4
200015fc:	439c                	lw	a5,0(a5)
200015fe:	85be                	mv	a1,a5
20001600:	853a                	mv	a0,a4
20001602:	6c9000ef          	jal	200024ca <_tft_tp_getpos>
20001606:	87aa                	mv	a5,a0
20001608:	873e                	mv	a4,a5
2000160a:	f4c42783          	lw	a5,-180(s0)
2000160e:	c398                	sw	a4,0(a5)
20001610:	0001                	nop
20001612:	341022f3          	csrr	t0,mepc
20001616:	0291                	addi	t0,t0,4
20001618:	34129073          	csrw	mepc,t0
2000161c:	0001                	nop
2000161e:	50fa                	lw	ra,188(sp)
20001620:	52da                	lw	t0,180(sp)
20001622:	00329073          	fscsr	t0
20001626:	52ea                	lw	t0,184(sp)
20001628:	534a                	lw	t1,176(sp)
2000162a:	53ba                	lw	t2,172(sp)
2000162c:	542a                	lw	s0,168(sp)
2000162e:	551a                	lw	a0,164(sp)
20001630:	558a                	lw	a1,160(sp)
20001632:	467a                	lw	a2,156(sp)
20001634:	46ea                	lw	a3,152(sp)
20001636:	475a                	lw	a4,148(sp)
20001638:	47ca                	lw	a5,144(sp)
2000163a:	483a                	lw	a6,140(sp)
2000163c:	48aa                	lw	a7,136(sp)
2000163e:	4e1a                	lw	t3,132(sp)
20001640:	4e8a                	lw	t4,128(sp)
20001642:	5f76                	lw	t5,124(sp)
20001644:	5fe6                	lw	t6,120(sp)
20001646:	6076                	flw	ft0,92(sp)
20001648:	60e6                	flw	ft1,88(sp)
2000164a:	6156                	flw	ft2,84(sp)
2000164c:	61c6                	flw	ft3,80(sp)
2000164e:	6236                	flw	ft4,76(sp)
20001650:	62a6                	flw	ft5,72(sp)
20001652:	6316                	flw	ft6,68(sp)
20001654:	6386                	flw	ft7,64(sp)
20001656:	7572                	flw	fa0,60(sp)
20001658:	75e2                	flw	fa1,56(sp)
2000165a:	7652                	flw	fa2,52(sp)
2000165c:	76c2                	flw	fa3,48(sp)
2000165e:	7732                	flw	fa4,44(sp)
20001660:	77a2                	flw	fa5,40(sp)
20001662:	7812                	flw	fa6,36(sp)
20001664:	7882                	flw	fa7,32(sp)
20001666:	6e72                	flw	ft8,28(sp)
20001668:	6ee2                	flw	ft9,24(sp)
2000166a:	6f52                	flw	ft10,20(sp)
2000166c:	6fc2                	flw	ft11,16(sp)
2000166e:	6129                	addi	sp,sp,192
20001670:	30200073          	mret

20001674 <tft_init>:
20001674:	7179                	addi	sp,sp,-48
20001676:	d606                	sw	ra,44(sp)
20001678:	d422                	sw	s0,40(sp)
2000167a:	1800                	addi	s0,sp,48
2000167c:	fca42e23          	sw	a0,-36(s0)
20001680:	fe840793          	addi	a5,s0,-24
20001684:	fef42023          	sw	a5,-32(s0)
20001688:	88be                	mv	a7,a5
2000168a:	fef42023          	sw	a5,-32(s0)
2000168e:	fe042423          	sw	zero,-24(s0)
20001692:	fdc42783          	lw	a5,-36(s0)
20001696:	fef42223          	sw	a5,-28(s0)
2000169a:	fe440793          	addi	a5,s0,-28
2000169e:	fef42623          	sw	a5,-20(s0)
200016a2:	2001c7b7          	lui	a5,0x2001c
200016a6:	07d1                	addi	a5,a5,20 # 2001c014 <__stack_top+0x144d8>
200016a8:	20001737          	lui	a4,0x20001
200016ac:	3dc70713          	addi	a4,a4,988 # 200013dc <ecall>
200016b0:	c398                	sw	a4,0(a5)
200016b2:	00000073          	ecall
200016b6:	fe442783          	lw	a5,-28(s0)
200016ba:	853e                	mv	a0,a5
200016bc:	50b2                	lw	ra,44(sp)
200016be:	5422                	lw	s0,40(sp)
200016c0:	6145                	addi	sp,sp,48
200016c2:	8082                	ret

200016c4 <tft_lcd_ellipse>:
200016c4:	711d                	addi	sp,sp,-96
200016c6:	ce86                	sw	ra,92(sp)
200016c8:	cca2                	sw	s0,88(sp)
200016ca:	1080                	addi	s0,sp,96
200016cc:	faa42e23          	sw	a0,-68(s0)
200016d0:	fab42c23          	sw	a1,-72(s0)
200016d4:	fac42a23          	sw	a2,-76(s0)
200016d8:	fad42823          	sw	a3,-80(s0)
200016dc:	fae42623          	sw	a4,-84(s0)
200016e0:	faf42423          	sw	a5,-88(s0)
200016e4:	fe840793          	addi	a5,s0,-24
200016e8:	fcf42623          	sw	a5,-52(s0)
200016ec:	88be                	mv	a7,a5
200016ee:	fcf42623          	sw	a5,-52(s0)
200016f2:	4785                	li	a5,1
200016f4:	fef42423          	sw	a5,-24(s0)
200016f8:	fbc42783          	lw	a5,-68(s0)
200016fc:	fcf42823          	sw	a5,-48(s0)
20001700:	fb842783          	lw	a5,-72(s0)
20001704:	fcf42a23          	sw	a5,-44(s0)
20001708:	fb442783          	lw	a5,-76(s0)
2000170c:	fcf42c23          	sw	a5,-40(s0)
20001710:	fb042783          	lw	a5,-80(s0)
20001714:	fcf42e23          	sw	a5,-36(s0)
20001718:	fac42783          	lw	a5,-84(s0)
2000171c:	fef42023          	sw	a5,-32(s0)
20001720:	fa842783          	lw	a5,-88(s0)
20001724:	fef42223          	sw	a5,-28(s0)
20001728:	fd040793          	addi	a5,s0,-48
2000172c:	fef42623          	sw	a5,-20(s0)
20001730:	00000073          	ecall
20001734:	0001                	nop
20001736:	40f6                	lw	ra,92(sp)
20001738:	4466                	lw	s0,88(sp)
2000173a:	6125                	addi	sp,sp,96
2000173c:	8082                	ret

2000173e <tft_lcd_rect>:
2000173e:	711d                	addi	sp,sp,-96
20001740:	ce86                	sw	ra,92(sp)
20001742:	cca2                	sw	s0,88(sp)
20001744:	1080                	addi	s0,sp,96
20001746:	faa42e23          	sw	a0,-68(s0)
2000174a:	fab42c23          	sw	a1,-72(s0)
2000174e:	fac42a23          	sw	a2,-76(s0)
20001752:	fad42823          	sw	a3,-80(s0)
20001756:	fae42623          	sw	a4,-84(s0)
2000175a:	faf42423          	sw	a5,-88(s0)
2000175e:	fe840793          	addi	a5,s0,-24
20001762:	fcf42623          	sw	a5,-52(s0)
20001766:	88be                	mv	a7,a5
20001768:	fcf42623          	sw	a5,-52(s0)
2000176c:	4789                	li	a5,2
2000176e:	fef42423          	sw	a5,-24(s0)
20001772:	fbc42783          	lw	a5,-68(s0)
20001776:	fcf42823          	sw	a5,-48(s0)
2000177a:	fb842783          	lw	a5,-72(s0)
2000177e:	fcf42a23          	sw	a5,-44(s0)
20001782:	fb442783          	lw	a5,-76(s0)
20001786:	fcf42c23          	sw	a5,-40(s0)
2000178a:	fb042783          	lw	a5,-80(s0)
2000178e:	fcf42e23          	sw	a5,-36(s0)
20001792:	fac42783          	lw	a5,-84(s0)
20001796:	fef42023          	sw	a5,-32(s0)
2000179a:	fa842783          	lw	a5,-88(s0)
2000179e:	fef42223          	sw	a5,-28(s0)
200017a2:	fd040793          	addi	a5,s0,-48
200017a6:	fef42623          	sw	a5,-20(s0)
200017aa:	00000073          	ecall
200017ae:	0001                	nop
200017b0:	40f6                	lw	ra,92(sp)
200017b2:	4466                	lw	s0,88(sp)
200017b4:	6125                	addi	sp,sp,96
200017b6:	8082                	ret

200017b8 <tft_lcd_line>:
200017b8:	711d                	addi	sp,sp,-96
200017ba:	ce86                	sw	ra,92(sp)
200017bc:	cca2                	sw	s0,88(sp)
200017be:	1080                	addi	s0,sp,96
200017c0:	faa42e23          	sw	a0,-68(s0)
200017c4:	fab42c23          	sw	a1,-72(s0)
200017c8:	fac42a23          	sw	a2,-76(s0)
200017cc:	fad42823          	sw	a3,-80(s0)
200017d0:	fae42623          	sw	a4,-84(s0)
200017d4:	fe840793          	addi	a5,s0,-24
200017d8:	fcf42623          	sw	a5,-52(s0)
200017dc:	88be                	mv	a7,a5
200017de:	fcf42623          	sw	a5,-52(s0)
200017e2:	478d                	li	a5,3
200017e4:	fef42423          	sw	a5,-24(s0)
200017e8:	fbc42783          	lw	a5,-68(s0)
200017ec:	fcf42823          	sw	a5,-48(s0)
200017f0:	fb842783          	lw	a5,-72(s0)
200017f4:	fcf42a23          	sw	a5,-44(s0)
200017f8:	fb442783          	lw	a5,-76(s0)
200017fc:	fcf42c23          	sw	a5,-40(s0)
20001800:	fb042783          	lw	a5,-80(s0)
20001804:	fcf42e23          	sw	a5,-36(s0)
20001808:	fac42783          	lw	a5,-84(s0)
2000180c:	fef42023          	sw	a5,-32(s0)
20001810:	fd040793          	addi	a5,s0,-48
20001814:	fef42623          	sw	a5,-20(s0)
20001818:	00000073          	ecall
2000181c:	0001                	nop
2000181e:	40f6                	lw	ra,92(sp)
20001820:	4466                	lw	s0,88(sp)
20001822:	6125                	addi	sp,sp,96
20001824:	8082                	ret

20001826 <tft_crosshair>:
20001826:	715d                	addi	sp,sp,-80
20001828:	c686                	sw	ra,76(sp)
2000182a:	c4a2                	sw	s0,72(sp)
2000182c:	0880                	addi	s0,sp,80
2000182e:	faa42e23          	sw	a0,-68(s0)
20001832:	fab42c23          	sw	a1,-72(s0)
20001836:	fac42a23          	sw	a2,-76(s0)
2000183a:	fe840793          	addi	a5,s0,-24
2000183e:	fcf42623          	sw	a5,-52(s0)
20001842:	88be                	mv	a7,a5
20001844:	fcf42623          	sw	a5,-52(s0)
20001848:	4791                	li	a5,4
2000184a:	fef42423          	sw	a5,-24(s0)
2000184e:	fbc42783          	lw	a5,-68(s0)
20001852:	fcf42823          	sw	a5,-48(s0)
20001856:	fb842783          	lw	a5,-72(s0)
2000185a:	fcf42a23          	sw	a5,-44(s0)
2000185e:	fb442783          	lw	a5,-76(s0)
20001862:	fcf42c23          	sw	a5,-40(s0)
20001866:	fd040793          	addi	a5,s0,-48
2000186a:	fef42623          	sw	a5,-20(s0)
2000186e:	00000073          	ecall
20001872:	0001                	nop
20001874:	40b6                	lw	ra,76(sp)
20001876:	4426                	lw	s0,72(sp)
20001878:	6161                	addi	sp,sp,80
2000187a:	8082                	ret

2000187c <tft_lcd_pixel>:
2000187c:	715d                	addi	sp,sp,-80
2000187e:	c686                	sw	ra,76(sp)
20001880:	c4a2                	sw	s0,72(sp)
20001882:	0880                	addi	s0,sp,80
20001884:	faa42e23          	sw	a0,-68(s0)
20001888:	fab42c23          	sw	a1,-72(s0)
2000188c:	fac42a23          	sw	a2,-76(s0)
20001890:	fe840793          	addi	a5,s0,-24
20001894:	fcf42623          	sw	a5,-52(s0)
20001898:	88be                	mv	a7,a5
2000189a:	fcf42623          	sw	a5,-52(s0)
2000189e:	4795                	li	a5,5
200018a0:	fef42423          	sw	a5,-24(s0)
200018a4:	fbc42783          	lw	a5,-68(s0)
200018a8:	fcf42823          	sw	a5,-48(s0)
200018ac:	fb842783          	lw	a5,-72(s0)
200018b0:	fcf42a23          	sw	a5,-44(s0)
200018b4:	fb442783          	lw	a5,-76(s0)
200018b8:	fcf42c23          	sw	a5,-40(s0)
200018bc:	fd040793          	addi	a5,s0,-48
200018c0:	fef42623          	sw	a5,-20(s0)
200018c4:	00000073          	ecall
200018c8:	0001                	nop
200018ca:	40b6                	lw	ra,76(sp)
200018cc:	4426                	lw	s0,72(sp)
200018ce:	6161                	addi	sp,sp,80
200018d0:	8082                	ret

200018d2 <tft_tp_scan>:
200018d2:	7179                	addi	sp,sp,-48
200018d4:	d606                	sw	ra,44(sp)
200018d6:	d422                	sw	s0,40(sp)
200018d8:	1800                	addi	s0,sp,48
200018da:	fca42e23          	sw	a0,-36(s0)
200018de:	fe840793          	addi	a5,s0,-24
200018e2:	fef42023          	sw	a5,-32(s0)
200018e6:	88be                	mv	a7,a5
200018e8:	fef42023          	sw	a5,-32(s0)
200018ec:	04600793          	li	a5,70
200018f0:	fef42423          	sw	a5,-24(s0)
200018f4:	fdc42783          	lw	a5,-36(s0)
200018f8:	fef42223          	sw	a5,-28(s0)
200018fc:	fe440793          	addi	a5,s0,-28
20001900:	fef42623          	sw	a5,-20(s0)
20001904:	00000073          	ecall
20001908:	fe442783          	lw	a5,-28(s0)
2000190c:	853e                	mv	a0,a5
2000190e:	50b2                	lw	ra,44(sp)
20001910:	5422                	lw	s0,40(sp)
20001912:	6145                	addi	sp,sp,48
20001914:	8082                	ret

20001916 <tft_tp_getpos>:
20001916:	7139                	addi	sp,sp,-64
20001918:	de06                	sw	ra,60(sp)
2000191a:	dc22                	sw	s0,56(sp)
2000191c:	0080                	addi	s0,sp,64
2000191e:	fca42623          	sw	a0,-52(s0)
20001922:	fcb42423          	sw	a1,-56(s0)
20001926:	fe840793          	addi	a5,s0,-24
2000192a:	fcf42e23          	sw	a5,-36(s0)
2000192e:	88be                	mv	a7,a5
20001930:	fcf42e23          	sw	a5,-36(s0)
20001934:	04700793          	li	a5,71
20001938:	fef42423          	sw	a5,-24(s0)
2000193c:	fcc42783          	lw	a5,-52(s0)
20001940:	fef42023          	sw	a5,-32(s0)
20001944:	fc842783          	lw	a5,-56(s0)
20001948:	fef42223          	sw	a5,-28(s0)
2000194c:	fe040793          	addi	a5,s0,-32
20001950:	fef42623          	sw	a5,-20(s0)
20001954:	00000073          	ecall
20001958:	fe042783          	lw	a5,-32(s0)
2000195c:	853e                	mv	a0,a5
2000195e:	50f2                	lw	ra,60(sp)
20001960:	5462                	lw	s0,56(sp)
20001962:	6121                	addi	sp,sp,64
20001964:	8082                	ret

20001966 <delay_ms>:
20001966:	7179                	addi	sp,sp,-48
20001968:	d606                	sw	ra,44(sp)
2000196a:	d422                	sw	s0,40(sp)
2000196c:	1800                	addi	s0,sp,48
2000196e:	fca42e23          	sw	a0,-36(s0)
20001972:	fe840793          	addi	a5,s0,-24
20001976:	fef42023          	sw	a5,-32(s0)
2000197a:	88be                	mv	a7,a5
2000197c:	fef42023          	sw	a5,-32(s0)
20001980:	03200793          	li	a5,50
20001984:	fef42423          	sw	a5,-24(s0)
20001988:	fdc42783          	lw	a5,-36(s0)
2000198c:	fef42223          	sw	a5,-28(s0)
20001990:	fe440793          	addi	a5,s0,-28
20001994:	fef42623          	sw	a5,-20(s0)
20001998:	00000073          	ecall
2000199c:	0001                	nop
2000199e:	50b2                	lw	ra,44(sp)
200019a0:	5422                	lw	s0,40(sp)
200019a2:	6145                	addi	sp,sp,48
200019a4:	8082                	ret

200019a6 <_pll_init_144>:
200019a6:	1101                	addi	sp,sp,-32
200019a8:	ce06                	sw	ra,28(sp)
200019aa:	cc22                	sw	s0,24(sp)
200019ac:	1000                	addi	s0,sp,32
200019ae:	fe042623          	sw	zero,-20(s0)
200019b2:	fe042423          	sw	zero,-24(s0)
200019b6:	400217b7          	lui	a5,0x40021
200019ba:	4398                	lw	a4,0(a5)
200019bc:	400217b7          	lui	a5,0x40021
200019c0:	00176713          	ori	a4,a4,1
200019c4:	c398                	sw	a4,0(a5)
200019c6:	400217b7          	lui	a5,0x40021
200019ca:	0791                	addi	a5,a5,4 # 40021004 <__stack_top+0x200194c8>
200019cc:	4394                	lw	a3,0(a5)
200019ce:	400217b7          	lui	a5,0x40021
200019d2:	0791                	addi	a5,a5,4 # 40021004 <__stack_top+0x200194c8>
200019d4:	f8ff0737          	lui	a4,0xf8ff0
200019d8:	8f75                	and	a4,a4,a3
200019da:	c398                	sw	a4,0(a5)
200019dc:	400217b7          	lui	a5,0x40021
200019e0:	4394                	lw	a3,0(a5)
200019e2:	400217b7          	lui	a5,0x40021
200019e6:	fef70737          	lui	a4,0xfef70
200019ea:	177d                	addi	a4,a4,-1 # fef6ffff <__stack_top+0xdef684c3>
200019ec:	8f75                	and	a4,a4,a3
200019ee:	c398                	sw	a4,0(a5)
200019f0:	400217b7          	lui	a5,0x40021
200019f4:	4394                	lw	a3,0(a5)
200019f6:	400217b7          	lui	a5,0x40021
200019fa:	fffc0737          	lui	a4,0xfffc0
200019fe:	177d                	addi	a4,a4,-1 # fffbffff <__stack_top+0xdffb84c3>
20001a00:	8f75                	and	a4,a4,a3
20001a02:	c398                	sw	a4,0(a5)
20001a04:	400217b7          	lui	a5,0x40021
20001a08:	0791                	addi	a5,a5,4 # 40021004 <__stack_top+0x200194c8>
20001a0a:	4394                	lw	a3,0(a5)
20001a0c:	400217b7          	lui	a5,0x40021
20001a10:	0791                	addi	a5,a5,4 # 40021004 <__stack_top+0x200194c8>
20001a12:	ff810737          	lui	a4,0xff810
20001a16:	177d                	addi	a4,a4,-1 # ff80ffff <__stack_top+0xdf8084c3>
20001a18:	8f75                	and	a4,a4,a3
20001a1a:	c398                	sw	a4,0(a5)
20001a1c:	400217b7          	lui	a5,0x40021
20001a20:	4394                	lw	a3,0(a5)
20001a22:	400217b7          	lui	a5,0x40021
20001a26:	ec000737          	lui	a4,0xec000
20001a2a:	177d                	addi	a4,a4,-1 # ebffffff <__stack_top+0xcbff84c3>
20001a2c:	8f75                	and	a4,a4,a3
20001a2e:	c398                	sw	a4,0(a5)
20001a30:	400217b7          	lui	a5,0x40021
20001a34:	07a1                	addi	a5,a5,8 # 40021008 <__stack_top+0x200194cc>
20001a36:	00ff0737          	lui	a4,0xff0
20001a3a:	c398                	sw	a4,0(a5)
20001a3c:	400217b7          	lui	a5,0x40021
20001a40:	02c78793          	addi	a5,a5,44 # 4002102c <__stack_top+0x200194f0>
20001a44:	0007a023          	sw	zero,0(a5)
20001a48:	400217b7          	lui	a5,0x40021
20001a4c:	4394                	lw	a3,0(a5)
20001a4e:	400217b7          	lui	a5,0x40021
20001a52:	6741                	lui	a4,0x10
20001a54:	8f55                	or	a4,a4,a3
20001a56:	c398                	sw	a4,0(a5)
20001a58:	400217b7          	lui	a5,0x40021
20001a5c:	4398                	lw	a4,0(a5)
20001a5e:	000207b7          	lui	a5,0x20
20001a62:	8ff9                	and	a5,a5,a4
20001a64:	fef42423          	sw	a5,-24(s0)
20001a68:	fec42783          	lw	a5,-20(s0)
20001a6c:	0785                	addi	a5,a5,1 # 20001 <_start-0x1ffdffff>
20001a6e:	fef42623          	sw	a5,-20(s0)
20001a72:	fe842783          	lw	a5,-24(s0)
20001a76:	e799                	bnez	a5,20001a84 <_pll_init_144+0xde>
20001a78:	fec42703          	lw	a4,-20(s0)
20001a7c:	1f400793          	li	a5,500
20001a80:	fcf71ce3          	bne	a4,a5,20001a58 <_pll_init_144+0xb2>
20001a84:	400217b7          	lui	a5,0x40021
20001a88:	4398                	lw	a4,0(a5)
20001a8a:	000207b7          	lui	a5,0x20
20001a8e:	8ff9                	and	a5,a5,a4
20001a90:	e399                	bnez	a5,20001a96 <_pll_init_144+0xf0>
20001a92:	4785                	li	a5,1
20001a94:	a0e1                	j	20001b5c <_pll_init_144+0x1b6>
20001a96:	400217b7          	lui	a5,0x40021
20001a9a:	00478713          	addi	a4,a5,4 # 40021004 <__stack_top+0x200194c8>
20001a9e:	400217b7          	lui	a5,0x40021
20001aa2:	0791                	addi	a5,a5,4 # 40021004 <__stack_top+0x200194c8>
20001aa4:	4318                	lw	a4,0(a4)
20001aa6:	c398                	sw	a4,0(a5)
20001aa8:	400217b7          	lui	a5,0x40021
20001aac:	00478713          	addi	a4,a5,4 # 40021004 <__stack_top+0x200194c8>
20001ab0:	400217b7          	lui	a5,0x40021
20001ab4:	0791                	addi	a5,a5,4 # 40021004 <__stack_top+0x200194c8>
20001ab6:	4318                	lw	a4,0(a4)
20001ab8:	c398                	sw	a4,0(a5)
20001aba:	400217b7          	lui	a5,0x40021
20001abe:	02c78793          	addi	a5,a5,44 # 4002102c <__stack_top+0x200194f0>
20001ac2:	4398                	lw	a4,0(a5)
20001ac4:	400217b7          	lui	a5,0x40021
20001ac8:	02c78793          	addi	a5,a5,44 # 4002102c <__stack_top+0x200194f0>
20001acc:	40076713          	ori	a4,a4,1024
20001ad0:	c398                	sw	a4,0(a5)
20001ad2:	400217b7          	lui	a5,0x40021
20001ad6:	0791                	addi	a5,a5,4 # 40021004 <__stack_top+0x200194c8>
20001ad8:	4394                	lw	a3,0(a5)
20001ada:	400217b7          	lui	a5,0x40021
20001ade:	0791                	addi	a5,a5,4 # 40021004 <__stack_top+0x200194c8>
20001ae0:	ffc10737          	lui	a4,0xffc10
20001ae4:	177d                	addi	a4,a4,-1 # ffc0ffff <__stack_top+0xdfc084c3>
20001ae6:	8f75                	and	a4,a4,a3
20001ae8:	c398                	sw	a4,0(a5)
20001aea:	400217b7          	lui	a5,0x40021
20001aee:	0791                	addi	a5,a5,4 # 40021004 <__stack_top+0x200194c8>
20001af0:	4394                	lw	a3,0(a5)
20001af2:	400217b7          	lui	a5,0x40021
20001af6:	0791                	addi	a5,a5,4 # 40021004 <__stack_top+0x200194c8>
20001af8:	6741                	lui	a4,0x10
20001afa:	8f55                	or	a4,a4,a3
20001afc:	c398                	sw	a4,0(a5)
20001afe:	400217b7          	lui	a5,0x40021
20001b02:	4394                	lw	a3,0(a5)
20001b04:	400217b7          	lui	a5,0x40021
20001b08:	01000737          	lui	a4,0x1000
20001b0c:	8f55                	or	a4,a4,a3
20001b0e:	c398                	sw	a4,0(a5)
20001b10:	0001                	nop
20001b12:	400217b7          	lui	a5,0x40021
20001b16:	4398                	lw	a4,0(a5)
20001b18:	020007b7          	lui	a5,0x2000
20001b1c:	8ff9                	and	a5,a5,a4
20001b1e:	dbf5                	beqz	a5,20001b12 <_pll_init_144+0x16c>
20001b20:	400217b7          	lui	a5,0x40021
20001b24:	0791                	addi	a5,a5,4 # 40021004 <__stack_top+0x200194c8>
20001b26:	4398                	lw	a4,0(a5)
20001b28:	400217b7          	lui	a5,0x40021
20001b2c:	0791                	addi	a5,a5,4 # 40021004 <__stack_top+0x200194c8>
20001b2e:	9b71                	andi	a4,a4,-4
20001b30:	c398                	sw	a4,0(a5)
20001b32:	400217b7          	lui	a5,0x40021
20001b36:	0791                	addi	a5,a5,4 # 40021004 <__stack_top+0x200194c8>
20001b38:	4398                	lw	a4,0(a5)
20001b3a:	400217b7          	lui	a5,0x40021
20001b3e:	0791                	addi	a5,a5,4 # 40021004 <__stack_top+0x200194c8>
20001b40:	00276713          	ori	a4,a4,2
20001b44:	c398                	sw	a4,0(a5)
20001b46:	0001                	nop
20001b48:	400217b7          	lui	a5,0x40021
20001b4c:	0791                	addi	a5,a5,4 # 40021004 <__stack_top+0x200194c8>
20001b4e:	439c                	lw	a5,0(a5)
20001b50:	00c7f713          	andi	a4,a5,12
20001b54:	47a1                	li	a5,8
20001b56:	fef719e3          	bne	a4,a5,20001b48 <_pll_init_144+0x1a2>
20001b5a:	4781                	li	a5,0
20001b5c:	853e                	mv	a0,a5
20001b5e:	40f2                	lw	ra,28(sp)
20001b60:	4462                	lw	s0,24(sp)
20001b62:	6105                	addi	sp,sp,32
20001b64:	8082                	ret

20001b66 <timer7_delay1ms>:
20001b66:	1141                	addi	sp,sp,-16
20001b68:	c606                	sw	ra,12(sp)
20001b6a:	c422                	sw	s0,8(sp)
20001b6c:	0800                	addi	s0,sp,16
20001b6e:	400017b7          	lui	a5,0x40001
20001b72:	40078793          	addi	a5,a5,1024 # 40001400 <__stack_top+0x1fff98c4>
20001b76:	00079023          	sh	zero,0(a5)
20001b7a:	400017b7          	lui	a5,0x40001
20001b7e:	40478793          	addi	a5,a5,1028 # 40001404 <__stack_top+0x1fff98c8>
20001b82:	00079023          	sh	zero,0(a5)
20001b86:	400017b7          	lui	a5,0x40001
20001b8a:	40c78793          	addi	a5,a5,1036 # 4000140c <__stack_top+0x1fff98d0>
20001b8e:	00079023          	sh	zero,0(a5)
20001b92:	400017b7          	lui	a5,0x40001
20001b96:	41078793          	addi	a5,a5,1040 # 40001410 <__stack_top+0x1fff98d4>
20001b9a:	00079023          	sh	zero,0(a5)
20001b9e:	400017b7          	lui	a5,0x40001
20001ba2:	42878793          	addi	a5,a5,1064 # 40001428 <__stack_top+0x1fff98ec>
20001ba6:	08f00713          	li	a4,143
20001baa:	00e79023          	sh	a4,0(a5)
20001bae:	400017b7          	lui	a5,0x40001
20001bb2:	42c78793          	addi	a5,a5,1068 # 4000142c <__stack_top+0x1fff98f0>
20001bb6:	3e700713          	li	a4,999
20001bba:	00e79023          	sh	a4,0(a5)
20001bbe:	400017b7          	lui	a5,0x40001
20001bc2:	40078793          	addi	a5,a5,1024 # 40001400 <__stack_top+0x1fff98c4>
20001bc6:	4705                	li	a4,1
20001bc8:	00e79023          	sh	a4,0(a5)
20001bcc:	0001                	nop
20001bce:	400017b7          	lui	a5,0x40001
20001bd2:	41078793          	addi	a5,a5,1040 # 40001410 <__stack_top+0x1fff98d4>
20001bd6:	0007d783          	lhu	a5,0(a5)
20001bda:	07c2                	slli	a5,a5,0x10
20001bdc:	83c1                	srli	a5,a5,0x10
20001bde:	8b85                	andi	a5,a5,1
20001be0:	d7fd                	beqz	a5,20001bce <timer7_delay1ms+0x68>
20001be2:	400017b7          	lui	a5,0x40001
20001be6:	40078793          	addi	a5,a5,1024 # 40001400 <__stack_top+0x1fff98c4>
20001bea:	00079023          	sh	zero,0(a5)
20001bee:	0001                	nop
20001bf0:	40b2                	lw	ra,12(sp)
20001bf2:	4422                	lw	s0,8(sp)
20001bf4:	0141                	addi	sp,sp,16
20001bf6:	8082                	ret

20001bf8 <_delay_ms>:
20001bf8:	1101                	addi	sp,sp,-32
20001bfa:	ce06                	sw	ra,28(sp)
20001bfc:	cc22                	sw	s0,24(sp)
20001bfe:	1000                	addi	s0,sp,32
20001c00:	fea42623          	sw	a0,-20(s0)
20001c04:	a011                	j	20001c08 <_delay_ms+0x10>
20001c06:	3785                	jal	20001b66 <timer7_delay1ms>
20001c08:	fec42783          	lw	a5,-20(s0)
20001c0c:	fff78713          	addi	a4,a5,-1
20001c10:	fee42623          	sw	a4,-20(s0)
20001c14:	fbed                	bnez	a5,20001c06 <_delay_ms+0xe>
20001c16:	0001                	nop
20001c18:	0001                	nop
20001c1a:	40f2                	lw	ra,28(sp)
20001c1c:	4462                	lw	s0,24(sp)
20001c1e:	6105                	addi	sp,sp,32
20001c20:	8082                	ret

20001c22 <timer7_delay1us>:
20001c22:	1141                	addi	sp,sp,-16
20001c24:	c606                	sw	ra,12(sp)
20001c26:	c422                	sw	s0,8(sp)
20001c28:	0800                	addi	s0,sp,16
20001c2a:	400017b7          	lui	a5,0x40001
20001c2e:	40078793          	addi	a5,a5,1024 # 40001400 <__stack_top+0x1fff98c4>
20001c32:	00079023          	sh	zero,0(a5)
20001c36:	400017b7          	lui	a5,0x40001
20001c3a:	41078793          	addi	a5,a5,1040 # 40001410 <__stack_top+0x1fff98d4>
20001c3e:	00079023          	sh	zero,0(a5)
20001c42:	400017b7          	lui	a5,0x40001
20001c46:	42878793          	addi	a5,a5,1064 # 40001428 <__stack_top+0x1fff98ec>
20001c4a:	00079023          	sh	zero,0(a5)
20001c4e:	400017b7          	lui	a5,0x40001
20001c52:	42c78793          	addi	a5,a5,1068 # 4000142c <__stack_top+0x1fff98f0>
20001c56:	08f00713          	li	a4,143
20001c5a:	00e79023          	sh	a4,0(a5)
20001c5e:	400017b7          	lui	a5,0x40001
20001c62:	40078793          	addi	a5,a5,1024 # 40001400 <__stack_top+0x1fff98c4>
20001c66:	4705                	li	a4,1
20001c68:	00e79023          	sh	a4,0(a5)
20001c6c:	0001                	nop
20001c6e:	400017b7          	lui	a5,0x40001
20001c72:	41078793          	addi	a5,a5,1040 # 40001410 <__stack_top+0x1fff98d4>
20001c76:	0007d783          	lhu	a5,0(a5)
20001c7a:	07c2                	slli	a5,a5,0x10
20001c7c:	83c1                	srli	a5,a5,0x10
20001c7e:	8b85                	andi	a5,a5,1
20001c80:	d7fd                	beqz	a5,20001c6e <timer7_delay1us+0x4c>
20001c82:	400017b7          	lui	a5,0x40001
20001c86:	40078793          	addi	a5,a5,1024 # 40001400 <__stack_top+0x1fff98c4>
20001c8a:	00079023          	sh	zero,0(a5)
20001c8e:	0001                	nop
20001c90:	40b2                	lw	ra,12(sp)
20001c92:	4422                	lw	s0,8(sp)
20001c94:	0141                	addi	sp,sp,16
20001c96:	8082                	ret

20001c98 <delay_us>:
20001c98:	1101                	addi	sp,sp,-32
20001c9a:	ce06                	sw	ra,28(sp)
20001c9c:	cc22                	sw	s0,24(sp)
20001c9e:	1000                	addi	s0,sp,32
20001ca0:	fea42623          	sw	a0,-20(s0)
20001ca4:	a011                	j	20001ca8 <delay_us+0x10>
20001ca6:	3fb5                	jal	20001c22 <timer7_delay1us>
20001ca8:	fec42783          	lw	a5,-20(s0)
20001cac:	fff78713          	addi	a4,a5,-1
20001cb0:	fee42623          	sw	a4,-20(s0)
20001cb4:	fbed                	bnez	a5,20001ca6 <delay_us+0xe>
20001cb6:	0001                	nop
20001cb8:	0001                	nop
20001cba:	40f2                	lw	ra,28(sp)
20001cbc:	4462                	lw	s0,24(sp)
20001cbe:	6105                	addi	sp,sp,32
20001cc0:	8082                	ret

20001cc2 <timer7_delay250ns>:
20001cc2:	1141                	addi	sp,sp,-16
20001cc4:	c606                	sw	ra,12(sp)
20001cc6:	c422                	sw	s0,8(sp)
20001cc8:	0800                	addi	s0,sp,16
20001cca:	400017b7          	lui	a5,0x40001
20001cce:	40078793          	addi	a5,a5,1024 # 40001400 <__stack_top+0x1fff98c4>
20001cd2:	00079023          	sh	zero,0(a5)
20001cd6:	400017b7          	lui	a5,0x40001
20001cda:	41078793          	addi	a5,a5,1040 # 40001410 <__stack_top+0x1fff98d4>
20001cde:	00079023          	sh	zero,0(a5)
20001ce2:	400017b7          	lui	a5,0x40001
20001ce6:	42878793          	addi	a5,a5,1064 # 40001428 <__stack_top+0x1fff98ec>
20001cea:	00079023          	sh	zero,0(a5)
20001cee:	400017b7          	lui	a5,0x40001
20001cf2:	42c78793          	addi	a5,a5,1068 # 4000142c <__stack_top+0x1fff98f0>
20001cf6:	4779                	li	a4,30
20001cf8:	00e79023          	sh	a4,0(a5)
20001cfc:	400017b7          	lui	a5,0x40001
20001d00:	40078793          	addi	a5,a5,1024 # 40001400 <__stack_top+0x1fff98c4>
20001d04:	4705                	li	a4,1
20001d06:	00e79023          	sh	a4,0(a5)
20001d0a:	0001                	nop
20001d0c:	400017b7          	lui	a5,0x40001
20001d10:	41078793          	addi	a5,a5,1040 # 40001410 <__stack_top+0x1fff98d4>
20001d14:	0007d783          	lhu	a5,0(a5)
20001d18:	07c2                	slli	a5,a5,0x10
20001d1a:	83c1                	srli	a5,a5,0x10
20001d1c:	8b85                	andi	a5,a5,1
20001d1e:	d7fd                	beqz	a5,20001d0c <timer7_delay250ns+0x4a>
20001d20:	400017b7          	lui	a5,0x40001
20001d24:	40078793          	addi	a5,a5,1024 # 40001400 <__stack_top+0x1fff98c4>
20001d28:	00079023          	sh	zero,0(a5)
20001d2c:	0001                	nop
20001d2e:	40b2                	lw	ra,12(sp)
20001d30:	4422                	lw	s0,8(sp)
20001d32:	0141                	addi	sp,sp,16
20001d34:	8082                	ret

20001d36 <delay_250ns>:
20001d36:	1141                	addi	sp,sp,-16
20001d38:	c606                	sw	ra,12(sp)
20001d3a:	c422                	sw	s0,8(sp)
20001d3c:	0800                	addi	s0,sp,16
20001d3e:	3751                	jal	20001cc2 <timer7_delay250ns>
20001d40:	0001                	nop
20001d42:	40b2                	lw	ra,12(sp)
20001d44:	4422                	lw	s0,8(sp)
20001d46:	0141                	addi	sp,sp,16
20001d48:	8082                	ret

20001d4a <tft_display_init>:
20001d4a:	1141                	addi	sp,sp,-16
20001d4c:	c606                	sw	ra,12(sp)
20001d4e:	c422                	sw	s0,8(sp)
20001d50:	0800                	addi	s0,sp,16
20001d52:	400217b7          	lui	a5,0x40021
20001d56:	07e1                	addi	a5,a5,24 # 40021018 <__stack_top+0x200194dc>
20001d58:	4394                	lw	a3,0(a5)
20001d5a:	400217b7          	lui	a5,0x40021
20001d5e:	07e1                	addi	a5,a5,24 # 40021018 <__stack_top+0x200194dc>
20001d60:	6705                	lui	a4,0x1
20001d62:	0735                	addi	a4,a4,13 # 100d <_start-0x1fffeff3>
20001d64:	8f55                	or	a4,a4,a3
20001d66:	c398                	sw	a4,0(a5)
20001d68:	400217b7          	lui	a5,0x40021
20001d6c:	07b1                	addi	a5,a5,12 # 4002100c <__stack_top+0x200194d0>
20001d6e:	4394                	lw	a3,0(a5)
20001d70:	400217b7          	lui	a5,0x40021
20001d74:	07b1                	addi	a5,a5,12 # 4002100c <__stack_top+0x200194d0>
20001d76:	6705                	lui	a4,0x1
20001d78:	0735                	addi	a4,a4,13 # 100d <_start-0x1fffeff3>
20001d7a:	8f55                	or	a4,a4,a3
20001d7c:	c398                	sw	a4,0(a5)
20001d7e:	400217b7          	lui	a5,0x40021
20001d82:	07b1                	addi	a5,a5,12 # 4002100c <__stack_top+0x200194d0>
20001d84:	4394                	lw	a3,0(a5)
20001d86:	400217b7          	lui	a5,0x40021
20001d8a:	07b1                	addi	a5,a5,12 # 4002100c <__stack_top+0x200194d0>
20001d8c:	777d                	lui	a4,0xfffff
20001d8e:	1749                	addi	a4,a4,-14 # ffffeff2 <__stack_top+0xdfff74b6>
20001d90:	8f75                	and	a4,a4,a3
20001d92:	c398                	sw	a4,0(a5)
20001d94:	400117b7          	lui	a5,0x40011
20001d98:	c0478793          	addi	a5,a5,-1020 # 40010c04 <__stack_top+0x200090c8>
20001d9c:	4398                	lw	a4,0(a5)
20001d9e:	400117b7          	lui	a5,0x40011
20001da2:	c0478793          	addi	a5,a5,-1020 # 40010c04 <__stack_top+0x200090c8>
20001da6:	0742                	slli	a4,a4,0x10
20001da8:	8341                	srli	a4,a4,0x10
20001daa:	c398                	sw	a4,0(a5)
20001dac:	400117b7          	lui	a5,0x40011
20001db0:	c0478793          	addi	a5,a5,-1020 # 40010c04 <__stack_top+0x200090c8>
20001db4:	4394                	lw	a3,0(a5)
20001db6:	400117b7          	lui	a5,0x40011
20001dba:	c0478793          	addi	a5,a5,-1020 # 40010c04 <__stack_top+0x200090c8>
20001dbe:	33330737          	lui	a4,0x33330
20001dc2:	8f55                	or	a4,a4,a3
20001dc4:	c398                	sw	a4,0(a5)
20001dc6:	400117b7          	lui	a5,0x40011
20001dca:	80078793          	addi	a5,a5,-2048 # 40010800 <__stack_top+0x20008cc4>
20001dce:	4394                	lw	a3,0(a5)
20001dd0:	400117b7          	lui	a5,0x40011
20001dd4:	80078793          	addi	a5,a5,-2048 # 40010800 <__stack_top+0x20008cc4>
20001dd8:	00100737          	lui	a4,0x100
20001ddc:	177d                	addi	a4,a4,-1 # fffff <_start-0x1ff00001>
20001dde:	8f75                	and	a4,a4,a3
20001de0:	c398                	sw	a4,0(a5)
20001de2:	400117b7          	lui	a5,0x40011
20001de6:	80078793          	addi	a5,a5,-2048 # 40010800 <__stack_top+0x20008cc4>
20001dea:	4394                	lw	a3,0(a5)
20001dec:	400117b7          	lui	a5,0x40011
20001df0:	80078793          	addi	a5,a5,-2048 # 40010800 <__stack_top+0x20008cc4>
20001df4:	b4b00737          	lui	a4,0xb4b00
20001df8:	8f55                	or	a4,a4,a3
20001dfa:	c398                	sw	a4,0(a5)
20001dfc:	400117b7          	lui	a5,0x40011
20001e00:	80c78793          	addi	a5,a5,-2036 # 4001080c <__stack_top+0x20008cd0>
20001e04:	0007d783          	lhu	a5,0(a5)
20001e08:	01079713          	slli	a4,a5,0x10
20001e0c:	8341                	srli	a4,a4,0x10
20001e0e:	400117b7          	lui	a5,0x40011
20001e12:	80c78793          	addi	a5,a5,-2036 # 4001080c <__stack_top+0x20008cd0>
20001e16:	04076713          	ori	a4,a4,64
20001e1a:	0742                	slli	a4,a4,0x10
20001e1c:	8341                	srli	a4,a4,0x10
20001e1e:	00e79023          	sh	a4,0(a5)
20001e22:	400117b7          	lui	a5,0x40011
20001e26:	c0c78793          	addi	a5,a5,-1012 # 40010c0c <__stack_top+0x200090d0>
20001e2a:	0007d783          	lhu	a5,0(a5)
20001e2e:	01079693          	slli	a3,a5,0x10
20001e32:	82c1                	srli	a3,a3,0x10
20001e34:	400117b7          	lui	a5,0x40011
20001e38:	c0c78793          	addi	a5,a5,-1012 # 40010c0c <__stack_top+0x200090d0>
20001e3c:	7761                	lui	a4,0xffff8
20001e3e:	8f55                	or	a4,a4,a3
20001e40:	0742                	slli	a4,a4,0x10
20001e42:	8341                	srli	a4,a4,0x10
20001e44:	00e79023          	sh	a4,0(a5)
20001e48:	400117b7          	lui	a5,0x40011
20001e4c:	c0c78793          	addi	a5,a5,-1012 # 40010c0c <__stack_top+0x200090d0>
20001e50:	0007d783          	lhu	a5,0(a5)
20001e54:	01079693          	slli	a3,a5,0x10
20001e58:	82c1                	srli	a3,a3,0x10
20001e5a:	400117b7          	lui	a5,0x40011
20001e5e:	c0c78793          	addi	a5,a5,-1012 # 40010c0c <__stack_top+0x200090d0>
20001e62:	6705                	lui	a4,0x1
20001e64:	8f55                	or	a4,a4,a3
20001e66:	0742                	slli	a4,a4,0x10
20001e68:	8341                	srli	a4,a4,0x10
20001e6a:	00e79023          	sh	a4,0(a5)
20001e6e:	400137b7          	lui	a5,0x40013
20001e72:	00079023          	sh	zero,0(a5) # 40013000 <__stack_top+0x2000b4c4>
20001e76:	400137b7          	lui	a5,0x40013
20001e7a:	00079223          	sh	zero,4(a5) # 40013004 <__stack_top+0x2000b4c8>
20001e7e:	400137b7          	lui	a5,0x40013
20001e82:	30c00713          	li	a4,780
20001e86:	00e79023          	sh	a4,0(a5) # 40013000 <__stack_top+0x2000b4c4>
20001e8a:	400137b7          	lui	a5,0x40013
20001e8e:	00079e23          	sh	zero,28(a5) # 4001301c <__stack_top+0x2000b4e0>
20001e92:	400137b7          	lui	a5,0x40013
20001e96:	471d                	li	a4,7
20001e98:	00e79823          	sh	a4,16(a5) # 40013010 <__stack_top+0x2000b4d4>
20001e9c:	400137b7          	lui	a5,0x40013
20001ea0:	0007d783          	lhu	a5,0(a5) # 40013000 <__stack_top+0x2000b4c4>
20001ea4:	01079713          	slli	a4,a5,0x10
20001ea8:	8341                	srli	a4,a4,0x10
20001eaa:	400137b7          	lui	a5,0x40013
20001eae:	04076713          	ori	a4,a4,64
20001eb2:	0742                	slli	a4,a4,0x10
20001eb4:	8341                	srli	a4,a4,0x10
20001eb6:	00e79023          	sh	a4,0(a5) # 40013000 <__stack_top+0x2000b4c4>
20001eba:	200077b7          	lui	a5,0x20007
20001ebe:	dd478793          	addi	a5,a5,-556 # 20006dd4 <lcddev>
20001ec2:	00079023          	sh	zero,0(a5)
20001ec6:	200077b7          	lui	a5,0x20007
20001eca:	dd478793          	addi	a5,a5,-556 # 20006dd4 <lcddev>
20001ece:	00079123          	sh	zero,2(a5)
20001ed2:	200077b7          	lui	a5,0x20007
20001ed6:	dd478793          	addi	a5,a5,-556 # 20006dd4 <lcddev>
20001eda:	00079223          	sh	zero,4(a5)
20001ede:	200077b7          	lui	a5,0x20007
20001ee2:	dd478793          	addi	a5,a5,-556 # 20006dd4 <lcddev>
20001ee6:	00078323          	sb	zero,6(a5)
20001eea:	200077b7          	lui	a5,0x20007
20001eee:	dd478793          	addi	a5,a5,-556 # 20006dd4 <lcddev>
20001ef2:	00079423          	sh	zero,8(a5)
20001ef6:	200077b7          	lui	a5,0x20007
20001efa:	dd478793          	addi	a5,a5,-556 # 20006dd4 <lcddev>
20001efe:	00079523          	sh	zero,10(a5)
20001f02:	200077b7          	lui	a5,0x20007
20001f06:	dd478793          	addi	a5,a5,-556 # 20006dd4 <lcddev>
20001f0a:	00079623          	sh	zero,12(a5)
20001f0e:	0001                	nop
20001f10:	40b2                	lw	ra,12(sp)
20001f12:	4422                	lw	s0,8(sp)
20001f14:	0141                	addi	sp,sp,16
20001f16:	8082                	ret

20001f18 <SPI_WriteByte>:
20001f18:	7179                	addi	sp,sp,-48
20001f1a:	d606                	sw	ra,44(sp)
20001f1c:	d422                	sw	s0,40(sp)
20001f1e:	1800                	addi	s0,sp,48
20001f20:	fca42e23          	sw	a0,-36(s0)
20001f24:	87ae                	mv	a5,a1
20001f26:	fcf40da3          	sb	a5,-37(s0)
20001f2a:	fe041723          	sh	zero,-18(s0)
20001f2e:	fdc42783          	lw	a5,-36(s0)
20001f32:	0087d783          	lhu	a5,8(a5)
20001f36:	fef41723          	sh	a5,-18(s0)
20001f3a:	fee45783          	lhu	a5,-18(s0)
20001f3e:	8b89                	andi	a5,a5,2
20001f40:	e391                	bnez	a5,20001f44 <SPI_WriteByte+0x2c>
20001f42:	b7f5                	j	20001f2e <SPI_WriteByte+0x16>
20001f44:	0001                	nop
20001f46:	fdb44783          	lbu	a5,-37(s0)
20001f4a:	01079713          	slli	a4,a5,0x10
20001f4e:	8341                	srli	a4,a4,0x10
20001f50:	fdc42783          	lw	a5,-36(s0)
20001f54:	00e79623          	sh	a4,12(a5)
20001f58:	fdc42783          	lw	a5,-36(s0)
20001f5c:	0087d783          	lhu	a5,8(a5)
20001f60:	fef41723          	sh	a5,-18(s0)
20001f64:	fee45783          	lhu	a5,-18(s0)
20001f68:	8b85                	andi	a5,a5,1
20001f6a:	e391                	bnez	a5,20001f6e <SPI_WriteByte+0x56>
20001f6c:	b7f5                	j	20001f58 <SPI_WriteByte+0x40>
20001f6e:	0001                	nop
20001f70:	fdc42783          	lw	a5,-36(s0)
20001f74:	00c7d783          	lhu	a5,12(a5)
20001f78:	07c2                	slli	a5,a5,0x10
20001f7a:	83c1                	srli	a5,a5,0x10
20001f7c:	0ff7f793          	zext.b	a5,a5
20001f80:	853e                	mv	a0,a5
20001f82:	50b2                	lw	ra,44(sp)
20001f84:	5422                	lw	s0,40(sp)
20001f86:	6145                	addi	sp,sp,48
20001f88:	8082                	ret

20001f8a <_tp_write_byte>:
20001f8a:	7179                	addi	sp,sp,-48
20001f8c:	d606                	sw	ra,44(sp)
20001f8e:	d422                	sw	s0,40(sp)
20001f90:	1800                	addi	s0,sp,48
20001f92:	87aa                	mv	a5,a0
20001f94:	fcf40fa3          	sb	a5,-33(s0)
20001f98:	fe0407a3          	sb	zero,-17(s0)
20001f9c:	fe0407a3          	sb	zero,-17(s0)
20001fa0:	a065                	j	20002048 <_tp_write_byte+0xbe>
20001fa2:	fdf40783          	lb	a5,-33(s0)
20001fa6:	0207d463          	bgez	a5,20001fce <_tp_write_byte+0x44>
20001faa:	400117b7          	lui	a5,0x40011
20001fae:	07b1                	addi	a5,a5,12 # 4001100c <__stack_top+0x200094d0>
20001fb0:	0007d783          	lhu	a5,0(a5)
20001fb4:	01079713          	slli	a4,a5,0x10
20001fb8:	8341                	srli	a4,a4,0x10
20001fba:	400117b7          	lui	a5,0x40011
20001fbe:	07b1                	addi	a5,a5,12 # 4001100c <__stack_top+0x200094d0>
20001fc0:	00476713          	ori	a4,a4,4
20001fc4:	0742                	slli	a4,a4,0x10
20001fc6:	8341                	srli	a4,a4,0x10
20001fc8:	00e79023          	sh	a4,0(a5)
20001fcc:	a00d                	j	20001fee <_tp_write_byte+0x64>
20001fce:	400117b7          	lui	a5,0x40011
20001fd2:	07b1                	addi	a5,a5,12 # 4001100c <__stack_top+0x200094d0>
20001fd4:	0007d783          	lhu	a5,0(a5)
20001fd8:	01079713          	slli	a4,a5,0x10
20001fdc:	8341                	srli	a4,a4,0x10
20001fde:	400117b7          	lui	a5,0x40011
20001fe2:	07b1                	addi	a5,a5,12 # 4001100c <__stack_top+0x200094d0>
20001fe4:	9b6d                	andi	a4,a4,-5
20001fe6:	0742                	slli	a4,a4,0x10
20001fe8:	8341                	srli	a4,a4,0x10
20001fea:	00e79023          	sh	a4,0(a5)
20001fee:	fdf44783          	lbu	a5,-33(s0)
20001ff2:	0786                	slli	a5,a5,0x1
20001ff4:	fcf40fa3          	sb	a5,-33(s0)
20001ff8:	400117b7          	lui	a5,0x40011
20001ffc:	07b1                	addi	a5,a5,12 # 4001100c <__stack_top+0x200094d0>
20001ffe:	0007d783          	lhu	a5,0(a5)
20002002:	01079713          	slli	a4,a5,0x10
20002006:	8341                	srli	a4,a4,0x10
20002008:	400117b7          	lui	a5,0x40011
2000200c:	07b1                	addi	a5,a5,12 # 4001100c <__stack_top+0x200094d0>
2000200e:	9b3d                	andi	a4,a4,-17
20002010:	0742                	slli	a4,a4,0x10
20002012:	8341                	srli	a4,a4,0x10
20002014:	00e79023          	sh	a4,0(a5)
20002018:	4505                	li	a0,1
2000201a:	39bd                	jal	20001c98 <delay_us>
2000201c:	400117b7          	lui	a5,0x40011
20002020:	07b1                	addi	a5,a5,12 # 4001100c <__stack_top+0x200094d0>
20002022:	0007d783          	lhu	a5,0(a5)
20002026:	01079713          	slli	a4,a5,0x10
2000202a:	8341                	srli	a4,a4,0x10
2000202c:	400117b7          	lui	a5,0x40011
20002030:	07b1                	addi	a5,a5,12 # 4001100c <__stack_top+0x200094d0>
20002032:	01076713          	ori	a4,a4,16
20002036:	0742                	slli	a4,a4,0x10
20002038:	8341                	srli	a4,a4,0x10
2000203a:	00e79023          	sh	a4,0(a5)
2000203e:	fef44783          	lbu	a5,-17(s0)
20002042:	0785                	addi	a5,a5,1
20002044:	fef407a3          	sb	a5,-17(s0)
20002048:	fef44703          	lbu	a4,-17(s0)
2000204c:	479d                	li	a5,7
2000204e:	f4e7fae3          	bgeu	a5,a4,20001fa2 <_tp_write_byte+0x18>
20002052:	0001                	nop
20002054:	0001                	nop
20002056:	50b2                	lw	ra,44(sp)
20002058:	5422                	lw	s0,40(sp)
2000205a:	6145                	addi	sp,sp,48
2000205c:	8082                	ret

2000205e <_tp_read_ad>:
2000205e:	7179                	addi	sp,sp,-48
20002060:	d606                	sw	ra,44(sp)
20002062:	d422                	sw	s0,40(sp)
20002064:	1800                	addi	s0,sp,48
20002066:	87aa                	mv	a5,a0
20002068:	fcf40fa3          	sb	a5,-33(s0)
2000206c:	fe0407a3          	sb	zero,-17(s0)
20002070:	fe041623          	sh	zero,-20(s0)
20002074:	fe041523          	sh	zero,-22(s0)
20002078:	400117b7          	lui	a5,0x40011
2000207c:	07b1                	addi	a5,a5,12 # 4001100c <__stack_top+0x200094d0>
2000207e:	0007d783          	lhu	a5,0(a5)
20002082:	01079713          	slli	a4,a5,0x10
20002086:	8341                	srli	a4,a4,0x10
20002088:	400117b7          	lui	a5,0x40011
2000208c:	07b1                	addi	a5,a5,12 # 4001100c <__stack_top+0x200094d0>
2000208e:	9b3d                	andi	a4,a4,-17
20002090:	0742                	slli	a4,a4,0x10
20002092:	8341                	srli	a4,a4,0x10
20002094:	00e79023          	sh	a4,0(a5)
20002098:	400117b7          	lui	a5,0x40011
2000209c:	07b1                	addi	a5,a5,12 # 4001100c <__stack_top+0x200094d0>
2000209e:	0007d783          	lhu	a5,0(a5)
200020a2:	01079713          	slli	a4,a5,0x10
200020a6:	8341                	srli	a4,a4,0x10
200020a8:	400117b7          	lui	a5,0x40011
200020ac:	07b1                	addi	a5,a5,12 # 4001100c <__stack_top+0x200094d0>
200020ae:	9b6d                	andi	a4,a4,-5
200020b0:	0742                	slli	a4,a4,0x10
200020b2:	8341                	srli	a4,a4,0x10
200020b4:	00e79023          	sh	a4,0(a5)
200020b8:	400117b7          	lui	a5,0x40011
200020bc:	07b1                	addi	a5,a5,12 # 4001100c <__stack_top+0x200094d0>
200020be:	0007d783          	lhu	a5,0(a5)
200020c2:	01079713          	slli	a4,a5,0x10
200020c6:	8341                	srli	a4,a4,0x10
200020c8:	400117b7          	lui	a5,0x40011
200020cc:	07b1                	addi	a5,a5,12 # 4001100c <__stack_top+0x200094d0>
200020ce:	9b5d                	andi	a4,a4,-9
200020d0:	0742                	slli	a4,a4,0x10
200020d2:	8341                	srli	a4,a4,0x10
200020d4:	00e79023          	sh	a4,0(a5)
200020d8:	fdf44783          	lbu	a5,-33(s0)
200020dc:	853e                	mv	a0,a5
200020de:	3575                	jal	20001f8a <_tp_write_byte>
200020e0:	4519                	li	a0,6
200020e2:	3e5d                	jal	20001c98 <delay_us>
200020e4:	400117b7          	lui	a5,0x40011
200020e8:	07b1                	addi	a5,a5,12 # 4001100c <__stack_top+0x200094d0>
200020ea:	0007d783          	lhu	a5,0(a5)
200020ee:	01079713          	slli	a4,a5,0x10
200020f2:	8341                	srli	a4,a4,0x10
200020f4:	400117b7          	lui	a5,0x40011
200020f8:	07b1                	addi	a5,a5,12 # 4001100c <__stack_top+0x200094d0>
200020fa:	9b3d                	andi	a4,a4,-17
200020fc:	0742                	slli	a4,a4,0x10
200020fe:	8341                	srli	a4,a4,0x10
20002100:	00e79023          	sh	a4,0(a5)
20002104:	4505                	li	a0,1
20002106:	3e49                	jal	20001c98 <delay_us>
20002108:	400117b7          	lui	a5,0x40011
2000210c:	07b1                	addi	a5,a5,12 # 4001100c <__stack_top+0x200094d0>
2000210e:	0007d783          	lhu	a5,0(a5)
20002112:	01079713          	slli	a4,a5,0x10
20002116:	8341                	srli	a4,a4,0x10
20002118:	400117b7          	lui	a5,0x40011
2000211c:	07b1                	addi	a5,a5,12 # 4001100c <__stack_top+0x200094d0>
2000211e:	01076713          	ori	a4,a4,16
20002122:	0742                	slli	a4,a4,0x10
20002124:	8341                	srli	a4,a4,0x10
20002126:	00e79023          	sh	a4,0(a5)
2000212a:	4505                	li	a0,1
2000212c:	36b5                	jal	20001c98 <delay_us>
2000212e:	400117b7          	lui	a5,0x40011
20002132:	07b1                	addi	a5,a5,12 # 4001100c <__stack_top+0x200094d0>
20002134:	0007d783          	lhu	a5,0(a5)
20002138:	01079713          	slli	a4,a5,0x10
2000213c:	8341                	srli	a4,a4,0x10
2000213e:	400117b7          	lui	a5,0x40011
20002142:	07b1                	addi	a5,a5,12 # 4001100c <__stack_top+0x200094d0>
20002144:	9b3d                	andi	a4,a4,-17
20002146:	0742                	slli	a4,a4,0x10
20002148:	8341                	srli	a4,a4,0x10
2000214a:	00e79023          	sh	a4,0(a5)
2000214e:	fe0407a3          	sb	zero,-17(s0)
20002152:	a059                	j	200021d8 <_tp_read_ad+0x17a>
20002154:	fec45783          	lhu	a5,-20(s0)
20002158:	0786                	slli	a5,a5,0x1
2000215a:	fef41623          	sh	a5,-20(s0)
2000215e:	400117b7          	lui	a5,0x40011
20002162:	07b1                	addi	a5,a5,12 # 4001100c <__stack_top+0x200094d0>
20002164:	0007d783          	lhu	a5,0(a5)
20002168:	01079713          	slli	a4,a5,0x10
2000216c:	8341                	srli	a4,a4,0x10
2000216e:	400117b7          	lui	a5,0x40011
20002172:	07b1                	addi	a5,a5,12 # 4001100c <__stack_top+0x200094d0>
20002174:	9b3d                	andi	a4,a4,-17
20002176:	0742                	slli	a4,a4,0x10
20002178:	8341                	srli	a4,a4,0x10
2000217a:	00e79023          	sh	a4,0(a5)
2000217e:	4505                	li	a0,1
20002180:	3e21                	jal	20001c98 <delay_us>
20002182:	400117b7          	lui	a5,0x40011
20002186:	07b1                	addi	a5,a5,12 # 4001100c <__stack_top+0x200094d0>
20002188:	0007d783          	lhu	a5,0(a5)
2000218c:	01079713          	slli	a4,a5,0x10
20002190:	8341                	srli	a4,a4,0x10
20002192:	400117b7          	lui	a5,0x40011
20002196:	07b1                	addi	a5,a5,12 # 4001100c <__stack_top+0x200094d0>
20002198:	01076713          	ori	a4,a4,16
2000219c:	0742                	slli	a4,a4,0x10
2000219e:	8341                	srli	a4,a4,0x10
200021a0:	00e79023          	sh	a4,0(a5)
200021a4:	400117b7          	lui	a5,0x40011
200021a8:	07a1                	addi	a5,a5,8 # 40011008 <__stack_top+0x200094cc>
200021aa:	0007d783          	lhu	a5,0(a5)
200021ae:	fef41523          	sh	a5,-22(s0)
200021b2:	400117b7          	lui	a5,0x40011
200021b6:	07a1                	addi	a5,a5,8 # 40011008 <__stack_top+0x200094cc>
200021b8:	0007d783          	lhu	a5,0(a5)
200021bc:	07c2                	slli	a5,a5,0x10
200021be:	83c1                	srli	a5,a5,0x10
200021c0:	8b89                	andi	a5,a5,2
200021c2:	c791                	beqz	a5,200021ce <_tp_read_ad+0x170>
200021c4:	fec45783          	lhu	a5,-20(s0)
200021c8:	0785                	addi	a5,a5,1
200021ca:	fef41623          	sh	a5,-20(s0)
200021ce:	fef44783          	lbu	a5,-17(s0)
200021d2:	0785                	addi	a5,a5,1
200021d4:	fef407a3          	sb	a5,-17(s0)
200021d8:	fef44703          	lbu	a4,-17(s0)
200021dc:	47bd                	li	a5,15
200021de:	f6e7fbe3          	bgeu	a5,a4,20002154 <_tp_read_ad+0xf6>
200021e2:	fec45783          	lhu	a5,-20(s0)
200021e6:	8391                	srli	a5,a5,0x4
200021e8:	fef41623          	sh	a5,-20(s0)
200021ec:	400117b7          	lui	a5,0x40011
200021f0:	07b1                	addi	a5,a5,12 # 4001100c <__stack_top+0x200094d0>
200021f2:	0007d783          	lhu	a5,0(a5)
200021f6:	01079713          	slli	a4,a5,0x10
200021fa:	8341                	srli	a4,a4,0x10
200021fc:	400117b7          	lui	a5,0x40011
20002200:	07b1                	addi	a5,a5,12 # 4001100c <__stack_top+0x200094d0>
20002202:	00876713          	ori	a4,a4,8
20002206:	0742                	slli	a4,a4,0x10
20002208:	8341                	srli	a4,a4,0x10
2000220a:	00e79023          	sh	a4,0(a5)
2000220e:	fec45783          	lhu	a5,-20(s0)
20002212:	853e                	mv	a0,a5
20002214:	50b2                	lw	ra,44(sp)
20002216:	5422                	lw	s0,40(sp)
20002218:	6145                	addi	sp,sp,48
2000221a:	8082                	ret

2000221c <_tp_read_xoy>:
2000221c:	7139                	addi	sp,sp,-64
2000221e:	de06                	sw	ra,60(sp)
20002220:	dc22                	sw	s0,56(sp)
20002222:	da26                	sw	s1,52(sp)
20002224:	0080                	addi	s0,sp,64
20002226:	87aa                	mv	a5,a0
20002228:	fcf407a3          	sb	a5,-49(s0)
2000222c:	fe041523          	sh	zero,-22(s0)
20002230:	fe041723          	sh	zero,-18(s0)
20002234:	a02d                	j	2000225e <_tp_read_xoy+0x42>
20002236:	fee45483          	lhu	s1,-18(s0)
2000223a:	fcf44783          	lbu	a5,-49(s0)
2000223e:	853e                	mv	a0,a5
20002240:	3d39                	jal	2000205e <_tp_read_ad>
20002242:	87aa                	mv	a5,a0
20002244:	86be                	mv	a3,a5
20002246:	fdc40793          	addi	a5,s0,-36
2000224a:	00149713          	slli	a4,s1,0x1
2000224e:	97ba                	add	a5,a5,a4
20002250:	00d79023          	sh	a3,0(a5)
20002254:	fee45783          	lhu	a5,-18(s0)
20002258:	0785                	addi	a5,a5,1
2000225a:	fef41723          	sh	a5,-18(s0)
2000225e:	fee45703          	lhu	a4,-18(s0)
20002262:	4791                	li	a5,4
20002264:	fce7f9e3          	bgeu	a5,a4,20002236 <_tp_read_xoy+0x1a>
20002268:	fe041723          	sh	zero,-18(s0)
2000226c:	a861                	j	20002304 <_tp_read_xoy+0xe8>
2000226e:	fee45783          	lhu	a5,-18(s0)
20002272:	0785                	addi	a5,a5,1
20002274:	fef41623          	sh	a5,-20(s0)
20002278:	a8a5                	j	200022f0 <_tp_read_xoy+0xd4>
2000227a:	fee45703          	lhu	a4,-18(s0)
2000227e:	fdc40793          	addi	a5,s0,-36
20002282:	0706                	slli	a4,a4,0x1
20002284:	97ba                	add	a5,a5,a4
20002286:	0007d703          	lhu	a4,0(a5)
2000228a:	fec45683          	lhu	a3,-20(s0)
2000228e:	fdc40793          	addi	a5,s0,-36
20002292:	0686                	slli	a3,a3,0x1
20002294:	97b6                	add	a5,a5,a3
20002296:	0007d783          	lhu	a5,0(a5)
2000229a:	04e7f663          	bgeu	a5,a4,200022e6 <_tp_read_xoy+0xca>
2000229e:	fee45703          	lhu	a4,-18(s0)
200022a2:	fdc40793          	addi	a5,s0,-36
200022a6:	0706                	slli	a4,a4,0x1
200022a8:	97ba                	add	a5,a5,a4
200022aa:	0007d783          	lhu	a5,0(a5)
200022ae:	fef41423          	sh	a5,-24(s0)
200022b2:	fec45703          	lhu	a4,-20(s0)
200022b6:	fee45683          	lhu	a3,-18(s0)
200022ba:	fdc40793          	addi	a5,s0,-36
200022be:	0706                	slli	a4,a4,0x1
200022c0:	97ba                	add	a5,a5,a4
200022c2:	0007d703          	lhu	a4,0(a5)
200022c6:	fdc40793          	addi	a5,s0,-36
200022ca:	0686                	slli	a3,a3,0x1
200022cc:	97b6                	add	a5,a5,a3
200022ce:	00e79023          	sh	a4,0(a5)
200022d2:	fec45703          	lhu	a4,-20(s0)
200022d6:	fdc40793          	addi	a5,s0,-36
200022da:	0706                	slli	a4,a4,0x1
200022dc:	97ba                	add	a5,a5,a4
200022de:	fe845703          	lhu	a4,-24(s0)
200022e2:	00e79023          	sh	a4,0(a5)
200022e6:	fec45783          	lhu	a5,-20(s0)
200022ea:	0785                	addi	a5,a5,1
200022ec:	fef41623          	sh	a5,-20(s0)
200022f0:	fec45703          	lhu	a4,-20(s0)
200022f4:	4791                	li	a5,4
200022f6:	f8e7f2e3          	bgeu	a5,a4,2000227a <_tp_read_xoy+0x5e>
200022fa:	fee45783          	lhu	a5,-18(s0)
200022fe:	0785                	addi	a5,a5,1
20002300:	fef41723          	sh	a5,-18(s0)
20002304:	fee45703          	lhu	a4,-18(s0)
20002308:	478d                	li	a5,3
2000230a:	f6e7f2e3          	bgeu	a5,a4,2000226e <_tp_read_xoy+0x52>
2000230e:	fe041523          	sh	zero,-22(s0)
20002312:	4785                	li	a5,1
20002314:	fef41723          	sh	a5,-18(s0)
20002318:	a01d                	j	2000233e <_tp_read_xoy+0x122>
2000231a:	fee45703          	lhu	a4,-18(s0)
2000231e:	fdc40793          	addi	a5,s0,-36
20002322:	0706                	slli	a4,a4,0x1
20002324:	97ba                	add	a5,a5,a4
20002326:	0007d783          	lhu	a5,0(a5)
2000232a:	fea45703          	lhu	a4,-22(s0)
2000232e:	97ba                	add	a5,a5,a4
20002330:	fef41523          	sh	a5,-22(s0)
20002334:	fee45783          	lhu	a5,-18(s0)
20002338:	0785                	addi	a5,a5,1
2000233a:	fef41723          	sh	a5,-18(s0)
2000233e:	fee45703          	lhu	a4,-18(s0)
20002342:	478d                	li	a5,3
20002344:	fce7fbe3          	bgeu	a5,a4,2000231a <_tp_read_xoy+0xfe>
20002348:	fea45703          	lhu	a4,-22(s0)
2000234c:	aaaab7b7          	lui	a5,0xaaaab
20002350:	aab78793          	addi	a5,a5,-1365 # aaaaaaab <__stack_top+0x8aaa2f6f>
20002354:	02f737b3          	mulhu	a5,a4,a5
20002358:	8385                	srli	a5,a5,0x1
2000235a:	fef41423          	sh	a5,-24(s0)
2000235e:	fe845783          	lhu	a5,-24(s0)
20002362:	853e                	mv	a0,a5
20002364:	50f2                	lw	ra,60(sp)
20002366:	5462                	lw	s0,56(sp)
20002368:	54d2                	lw	s1,52(sp)
2000236a:	6121                	addi	sp,sp,64
2000236c:	8082                	ret

2000236e <_tp_read_xy>:
2000236e:	7179                	addi	sp,sp,-48
20002370:	d606                	sw	ra,44(sp)
20002372:	d422                	sw	s0,40(sp)
20002374:	1800                	addi	s0,sp,48
20002376:	fca42e23          	sw	a0,-36(s0)
2000237a:	fcb42c23          	sw	a1,-40(s0)
2000237e:	0d000513          	li	a0,208
20002382:	3d69                	jal	2000221c <_tp_read_xoy>
20002384:	87aa                	mv	a5,a0
20002386:	fef41723          	sh	a5,-18(s0)
2000238a:	09000513          	li	a0,144
2000238e:	3579                	jal	2000221c <_tp_read_xoy>
20002390:	87aa                	mv	a5,a0
20002392:	fef41623          	sh	a5,-20(s0)
20002396:	fdc42783          	lw	a5,-36(s0)
2000239a:	fee45703          	lhu	a4,-18(s0)
2000239e:	00e79023          	sh	a4,0(a5)
200023a2:	fd842783          	lw	a5,-40(s0)
200023a6:	fec45703          	lhu	a4,-20(s0)
200023aa:	00e79023          	sh	a4,0(a5)
200023ae:	4785                	li	a5,1
200023b0:	853e                	mv	a0,a5
200023b2:	50b2                	lw	ra,44(sp)
200023b4:	5422                	lw	s0,40(sp)
200023b6:	6145                	addi	sp,sp,48
200023b8:	8082                	ret

200023ba <_tp_read_xy2>:
200023ba:	7179                	addi	sp,sp,-48
200023bc:	d606                	sw	ra,44(sp)
200023be:	d422                	sw	s0,40(sp)
200023c0:	1800                	addi	s0,sp,48
200023c2:	fca42e23          	sw	a0,-36(s0)
200023c6:	fcb42c23          	sw	a1,-40(s0)
200023ca:	fea40713          	addi	a4,s0,-22
200023ce:	fec40793          	addi	a5,s0,-20
200023d2:	85ba                	mv	a1,a4
200023d4:	853e                	mv	a0,a5
200023d6:	3f61                	jal	2000236e <_tp_read_xy>
200023d8:	87aa                	mv	a5,a0
200023da:	fef407a3          	sb	a5,-17(s0)
200023de:	fef44783          	lbu	a5,-17(s0)
200023e2:	e399                	bnez	a5,200023e8 <_tp_read_xy2+0x2e>
200023e4:	4781                	li	a5,0
200023e6:	a8e9                	j	200024c0 <_tp_read_xy2+0x106>
200023e8:	fe640713          	addi	a4,s0,-26
200023ec:	fe840793          	addi	a5,s0,-24
200023f0:	85ba                	mv	a1,a4
200023f2:	853e                	mv	a0,a5
200023f4:	3fad                	jal	2000236e <_tp_read_xy>
200023f6:	87aa                	mv	a5,a0
200023f8:	fef407a3          	sb	a5,-17(s0)
200023fc:	fef44783          	lbu	a5,-17(s0)
20002400:	e399                	bnez	a5,20002406 <_tp_read_xy2+0x4c>
20002402:	4781                	li	a5,0
20002404:	a875                	j	200024c0 <_tp_read_xy2+0x106>
20002406:	fe845703          	lhu	a4,-24(s0)
2000240a:	fec45783          	lhu	a5,-20(s0)
2000240e:	00e7ea63          	bltu	a5,a4,20002422 <_tp_read_xy2+0x68>
20002412:	fe845783          	lhu	a5,-24(s0)
20002416:	03178793          	addi	a5,a5,49
2000241a:	fec45703          	lhu	a4,-20(s0)
2000241e:	02e7d063          	bge	a5,a4,2000243e <_tp_read_xy2+0x84>
20002422:	fec45703          	lhu	a4,-20(s0)
20002426:	fe845783          	lhu	a5,-24(s0)
2000242a:	08e7ea63          	bltu	a5,a4,200024be <_tp_read_xy2+0x104>
2000242e:	fec45783          	lhu	a5,-20(s0)
20002432:	03178793          	addi	a5,a5,49
20002436:	fe845703          	lhu	a4,-24(s0)
2000243a:	08e7c263          	blt	a5,a4,200024be <_tp_read_xy2+0x104>
2000243e:	fe645703          	lhu	a4,-26(s0)
20002442:	fea45783          	lhu	a5,-22(s0)
20002446:	00e7ea63          	bltu	a5,a4,2000245a <_tp_read_xy2+0xa0>
2000244a:	fe645783          	lhu	a5,-26(s0)
2000244e:	03178793          	addi	a5,a5,49
20002452:	fea45703          	lhu	a4,-22(s0)
20002456:	02e7d063          	bge	a5,a4,20002476 <_tp_read_xy2+0xbc>
2000245a:	fea45703          	lhu	a4,-22(s0)
2000245e:	fe645783          	lhu	a5,-26(s0)
20002462:	04e7ee63          	bltu	a5,a4,200024be <_tp_read_xy2+0x104>
20002466:	fea45783          	lhu	a5,-22(s0)
2000246a:	03178793          	addi	a5,a5,49
2000246e:	fe645703          	lhu	a4,-26(s0)
20002472:	04e7c663          	blt	a5,a4,200024be <_tp_read_xy2+0x104>
20002476:	fec45783          	lhu	a5,-20(s0)
2000247a:	873e                	mv	a4,a5
2000247c:	fe845783          	lhu	a5,-24(s0)
20002480:	97ba                	add	a5,a5,a4
20002482:	01f7d713          	srli	a4,a5,0x1f
20002486:	97ba                	add	a5,a5,a4
20002488:	8785                	srai	a5,a5,0x1
2000248a:	01079713          	slli	a4,a5,0x10
2000248e:	8341                	srli	a4,a4,0x10
20002490:	fdc42783          	lw	a5,-36(s0)
20002494:	00e79023          	sh	a4,0(a5)
20002498:	fea45783          	lhu	a5,-22(s0)
2000249c:	873e                	mv	a4,a5
2000249e:	fe645783          	lhu	a5,-26(s0)
200024a2:	97ba                	add	a5,a5,a4
200024a4:	01f7d713          	srli	a4,a5,0x1f
200024a8:	97ba                	add	a5,a5,a4
200024aa:	8785                	srai	a5,a5,0x1
200024ac:	01079713          	slli	a4,a5,0x10
200024b0:	8341                	srli	a4,a4,0x10
200024b2:	fd842783          	lw	a5,-40(s0)
200024b6:	00e79023          	sh	a4,0(a5)
200024ba:	4785                	li	a5,1
200024bc:	a011                	j	200024c0 <_tp_read_xy2+0x106>
200024be:	4781                	li	a5,0
200024c0:	853e                	mv	a0,a5
200024c2:	50b2                	lw	ra,44(sp)
200024c4:	5422                	lw	s0,40(sp)
200024c6:	6145                	addi	sp,sp,48
200024c8:	8082                	ret

200024ca <_tft_tp_getpos>:
200024ca:	1101                	addi	sp,sp,-32
200024cc:	ce06                	sw	ra,28(sp)
200024ce:	cc22                	sw	s0,24(sp)
200024d0:	1000                	addi	s0,sp,32
200024d2:	fea42623          	sw	a0,-20(s0)
200024d6:	feb42423          	sw	a1,-24(s0)
200024da:	200077b7          	lui	a5,0x20007
200024de:	de478793          	addi	a5,a5,-540 # 20006de4 <tp_dev>
200024e2:	0087c783          	lbu	a5,8(a5)
200024e6:	07e2                	slli	a5,a5,0x18
200024e8:	87e1                	srai	a5,a5,0x18
200024ea:	0207d863          	bgez	a5,2000251a <_tft_tp_getpos+0x50>
200024ee:	200077b7          	lui	a5,0x20007
200024f2:	de478793          	addi	a5,a5,-540 # 20006de4 <tp_dev>
200024f6:	0047d783          	lhu	a5,4(a5)
200024fa:	873e                	mv	a4,a5
200024fc:	fec42783          	lw	a5,-20(s0)
20002500:	c398                	sw	a4,0(a5)
20002502:	200077b7          	lui	a5,0x20007
20002506:	de478793          	addi	a5,a5,-540 # 20006de4 <tp_dev>
2000250a:	0067d783          	lhu	a5,6(a5)
2000250e:	873e                	mv	a4,a5
20002510:	fe842783          	lw	a5,-24(s0)
20002514:	c398                	sw	a4,0(a5)
20002516:	4785                	li	a5,1
20002518:	a011                	j	2000251c <_tft_tp_getpos+0x52>
2000251a:	4781                	li	a5,0
2000251c:	853e                	mv	a0,a5
2000251e:	40f2                	lw	ra,28(sp)
20002520:	4462                	lw	s0,24(sp)
20002522:	6105                	addi	sp,sp,32
20002524:	8082                	ret

20002526 <_tft_tp_scan>:
20002526:	7179                	addi	sp,sp,-48
20002528:	d606                	sw	ra,44(sp)
2000252a:	d422                	sw	s0,40(sp)
2000252c:	1800                	addi	s0,sp,48
2000252e:	fca42e23          	sw	a0,-36(s0)
20002532:	400117b7          	lui	a5,0x40011
20002536:	07a1                	addi	a5,a5,8 # 40011008 <__stack_top+0x200094cc>
20002538:	0007d783          	lhu	a5,0(a5)
2000253c:	07c2                	slli	a5,a5,0x10
2000253e:	83c1                	srli	a5,a5,0x10
20002540:	8b85                	andi	a5,a5,1
20002542:	10079f63          	bnez	a5,20002660 <_tft_tp_scan+0x13a>
20002546:	fdc42783          	lw	a5,-36(s0)
2000254a:	cb99                	beqz	a5,20002560 <_tft_tp_scan+0x3a>
2000254c:	200077b7          	lui	a5,0x20007
20002550:	dea78593          	addi	a1,a5,-534 # 20006dea <tp_dev+0x6>
20002554:	200077b7          	lui	a5,0x20007
20002558:	de878513          	addi	a0,a5,-536 # 20006de8 <tp_dev+0x4>
2000255c:	3db9                	jal	200023ba <_tp_read_xy2>
2000255e:	a075                	j	2000260a <_tft_tp_scan+0xe4>
20002560:	200077b7          	lui	a5,0x20007
20002564:	dea78593          	addi	a1,a5,-534 # 20006dea <tp_dev+0x6>
20002568:	200077b7          	lui	a5,0x20007
2000256c:	de878513          	addi	a0,a5,-536 # 20006de8 <tp_dev+0x4>
20002570:	35a9                	jal	200023ba <_tp_read_xy2>
20002572:	87aa                	mv	a5,a0
20002574:	cbd9                	beqz	a5,2000260a <_tft_tp_scan+0xe4>
20002576:	200077b7          	lui	a5,0x20007
2000257a:	de478793          	addi	a5,a5,-540 # 20006de4 <tp_dev>
2000257e:	0047d783          	lhu	a5,4(a5)
20002582:	873e                	mv	a4,a5
20002584:	87ba                	mv	a5,a4
20002586:	078a                	slli	a5,a5,0x2
20002588:	97ba                	add	a5,a5,a4
2000258a:	079a                	slli	a5,a5,0x6
2000258c:	0027d713          	srli	a4,a5,0x2
20002590:	200807b7          	lui	a5,0x20080
20002594:	20178793          	addi	a5,a5,513 # 20080201 <__stack_top+0x786c5>
20002598:	02f737b3          	mulhu	a5,a4,a5
2000259c:	839d                	srli	a5,a5,0x7
2000259e:	14000713          	li	a4,320
200025a2:	40f707b3          	sub	a5,a4,a5
200025a6:	fef42623          	sw	a5,-20(s0)
200025aa:	200077b7          	lui	a5,0x20007
200025ae:	de478793          	addi	a5,a5,-540 # 20006de4 <tp_dev>
200025b2:	0067d783          	lhu	a5,6(a5)
200025b6:	873e                	mv	a4,a5
200025b8:	87ba                	mv	a5,a4
200025ba:	0792                	slli	a5,a5,0x4
200025bc:	8f99                	sub	a5,a5,a4
200025be:	0796                	slli	a5,a5,0x5
200025c0:	0027d713          	srli	a4,a5,0x2
200025c4:	200807b7          	lui	a5,0x20080
200025c8:	20178793          	addi	a5,a5,513 # 20080201 <__stack_top+0x786c5>
200025cc:	02f737b3          	mulhu	a5,a4,a5
200025d0:	839d                	srli	a5,a5,0x7
200025d2:	1e000713          	li	a4,480
200025d6:	40f707b3          	sub	a5,a4,a5
200025da:	fef42423          	sw	a5,-24(s0)
200025de:	fe842783          	lw	a5,-24(s0)
200025e2:	01079713          	slli	a4,a5,0x10
200025e6:	8341                	srli	a4,a4,0x10
200025e8:	200077b7          	lui	a5,0x20007
200025ec:	de478793          	addi	a5,a5,-540 # 20006de4 <tp_dev>
200025f0:	00e79223          	sh	a4,4(a5)
200025f4:	fec42783          	lw	a5,-20(s0)
200025f8:	01079713          	slli	a4,a5,0x10
200025fc:	8341                	srli	a4,a4,0x10
200025fe:	200077b7          	lui	a5,0x20007
20002602:	de478793          	addi	a5,a5,-540 # 20006de4 <tp_dev>
20002606:	00e79323          	sh	a4,6(a5)
2000260a:	200077b7          	lui	a5,0x20007
2000260e:	de478793          	addi	a5,a5,-540 # 20006de4 <tp_dev>
20002612:	0087c783          	lbu	a5,8(a5)
20002616:	07e2                	slli	a5,a5,0x18
20002618:	87e1                	srai	a5,a5,0x18
2000261a:	0a07c863          	bltz	a5,200026ca <_tft_tp_scan+0x1a4>
2000261e:	200077b7          	lui	a5,0x20007
20002622:	de478793          	addi	a5,a5,-540 # 20006de4 <tp_dev>
20002626:	fc000713          	li	a4,-64
2000262a:	00e78423          	sb	a4,8(a5)
2000262e:	200077b7          	lui	a5,0x20007
20002632:	de478793          	addi	a5,a5,-540 # 20006de4 <tp_dev>
20002636:	0047d703          	lhu	a4,4(a5)
2000263a:	200077b7          	lui	a5,0x20007
2000263e:	de478793          	addi	a5,a5,-540 # 20006de4 <tp_dev>
20002642:	00e79023          	sh	a4,0(a5)
20002646:	200077b7          	lui	a5,0x20007
2000264a:	de478793          	addi	a5,a5,-540 # 20006de4 <tp_dev>
2000264e:	0067d703          	lhu	a4,6(a5)
20002652:	200077b7          	lui	a5,0x20007
20002656:	de478793          	addi	a5,a5,-540 # 20006de4 <tp_dev>
2000265a:	00e79123          	sh	a4,2(a5)
2000265e:	a0b5                	j	200026ca <_tft_tp_scan+0x1a4>
20002660:	200077b7          	lui	a5,0x20007
20002664:	de478793          	addi	a5,a5,-540 # 20006de4 <tp_dev>
20002668:	0087c783          	lbu	a5,8(a5)
2000266c:	07e2                	slli	a5,a5,0x18
2000266e:	87e1                	srai	a5,a5,0x18
20002670:	0207d363          	bgez	a5,20002696 <_tft_tp_scan+0x170>
20002674:	200077b7          	lui	a5,0x20007
20002678:	de478793          	addi	a5,a5,-540 # 20006de4 <tp_dev>
2000267c:	0087c783          	lbu	a5,8(a5)
20002680:	07f7f793          	andi	a5,a5,127
20002684:	0ff7f713          	zext.b	a4,a5
20002688:	200077b7          	lui	a5,0x20007
2000268c:	de478793          	addi	a5,a5,-540 # 20006de4 <tp_dev>
20002690:	00e78423          	sb	a4,8(a5)
20002694:	a81d                	j	200026ca <_tft_tp_scan+0x1a4>
20002696:	200077b7          	lui	a5,0x20007
2000269a:	de478793          	addi	a5,a5,-540 # 20006de4 <tp_dev>
2000269e:	00079023          	sh	zero,0(a5)
200026a2:	200077b7          	lui	a5,0x20007
200026a6:	de478793          	addi	a5,a5,-540 # 20006de4 <tp_dev>
200026aa:	00079123          	sh	zero,2(a5)
200026ae:	200077b7          	lui	a5,0x20007
200026b2:	de478793          	addi	a5,a5,-540 # 20006de4 <tp_dev>
200026b6:	577d                	li	a4,-1
200026b8:	00e79223          	sh	a4,4(a5)
200026bc:	200077b7          	lui	a5,0x20007
200026c0:	de478793          	addi	a5,a5,-540 # 20006de4 <tp_dev>
200026c4:	577d                	li	a4,-1
200026c6:	00e79323          	sh	a4,6(a5)
200026ca:	200077b7          	lui	a5,0x20007
200026ce:	de478793          	addi	a5,a5,-540 # 20006de4 <tp_dev>
200026d2:	0087c783          	lbu	a5,8(a5)
200026d6:	0807f793          	andi	a5,a5,128
200026da:	853e                	mv	a0,a5
200026dc:	50b2                	lw	ra,44(sp)
200026de:	5422                	lw	s0,40(sp)
200026e0:	6145                	addi	sp,sp,48
200026e2:	8082                	ret

200026e4 <lcd_write_register>:
200026e4:	1101                	addi	sp,sp,-32
200026e6:	ce06                	sw	ra,28(sp)
200026e8:	cc22                	sw	s0,24(sp)
200026ea:	1000                	addi	s0,sp,32
200026ec:	87aa                	mv	a5,a0
200026ee:	fef407a3          	sb	a5,-17(s0)
200026f2:	400117b7          	lui	a5,0x40011
200026f6:	c0c78793          	addi	a5,a5,-1012 # 40010c0c <__stack_top+0x200090d0>
200026fa:	0007d783          	lhu	a5,0(a5)
200026fe:	01079693          	slli	a3,a5,0x10
20002702:	82c1                	srli	a3,a3,0x10
20002704:	400117b7          	lui	a5,0x40011
20002708:	c0c78793          	addi	a5,a5,-1012 # 40010c0c <__stack_top+0x200090d0>
2000270c:	6721                	lui	a4,0x8
2000270e:	177d                	addi	a4,a4,-1 # 7fff <_start-0x1fff8001>
20002710:	8f75                	and	a4,a4,a3
20002712:	0742                	slli	a4,a4,0x10
20002714:	8341                	srli	a4,a4,0x10
20002716:	00e79023          	sh	a4,0(a5)
2000271a:	400117b7          	lui	a5,0x40011
2000271e:	c0c78793          	addi	a5,a5,-1012 # 40010c0c <__stack_top+0x200090d0>
20002722:	0007d783          	lhu	a5,0(a5)
20002726:	01079693          	slli	a3,a5,0x10
2000272a:	82c1                	srli	a3,a3,0x10
2000272c:	400117b7          	lui	a5,0x40011
20002730:	c0c78793          	addi	a5,a5,-1012 # 40010c0c <__stack_top+0x200090d0>
20002734:	7771                	lui	a4,0xffffc
20002736:	177d                	addi	a4,a4,-1 # ffffbfff <__stack_top+0xdfff44c3>
20002738:	8f75                	and	a4,a4,a3
2000273a:	0742                	slli	a4,a4,0x10
2000273c:	8341                	srli	a4,a4,0x10
2000273e:	00e79023          	sh	a4,0(a5)
20002742:	fef44783          	lbu	a5,-17(s0)
20002746:	85be                	mv	a1,a5
20002748:	40013537          	lui	a0,0x40013
2000274c:	fccff0ef          	jal	20001f18 <SPI_WriteByte>
20002750:	400117b7          	lui	a5,0x40011
20002754:	c0c78793          	addi	a5,a5,-1012 # 40010c0c <__stack_top+0x200090d0>
20002758:	0007d783          	lhu	a5,0(a5)
2000275c:	01079693          	slli	a3,a5,0x10
20002760:	82c1                	srli	a3,a3,0x10
20002762:	400117b7          	lui	a5,0x40011
20002766:	c0c78793          	addi	a5,a5,-1012 # 40010c0c <__stack_top+0x200090d0>
2000276a:	7761                	lui	a4,0xffff8
2000276c:	8f55                	or	a4,a4,a3
2000276e:	0742                	slli	a4,a4,0x10
20002770:	8341                	srli	a4,a4,0x10
20002772:	00e79023          	sh	a4,0(a5)
20002776:	0001                	nop
20002778:	40f2                	lw	ra,28(sp)
2000277a:	4462                	lw	s0,24(sp)
2000277c:	6105                	addi	sp,sp,32
2000277e:	8082                	ret

20002780 <lcd_write_data>:
20002780:	1101                	addi	sp,sp,-32
20002782:	ce06                	sw	ra,28(sp)
20002784:	cc22                	sw	s0,24(sp)
20002786:	1000                	addi	s0,sp,32
20002788:	87aa                	mv	a5,a0
2000278a:	fef407a3          	sb	a5,-17(s0)
2000278e:	400117b7          	lui	a5,0x40011
20002792:	c0c78793          	addi	a5,a5,-1012 # 40010c0c <__stack_top+0x200090d0>
20002796:	0007d783          	lhu	a5,0(a5)
2000279a:	01079693          	slli	a3,a5,0x10
2000279e:	82c1                	srli	a3,a3,0x10
200027a0:	400117b7          	lui	a5,0x40011
200027a4:	c0c78793          	addi	a5,a5,-1012 # 40010c0c <__stack_top+0x200090d0>
200027a8:	6721                	lui	a4,0x8
200027aa:	177d                	addi	a4,a4,-1 # 7fff <_start-0x1fff8001>
200027ac:	8f75                	and	a4,a4,a3
200027ae:	0742                	slli	a4,a4,0x10
200027b0:	8341                	srli	a4,a4,0x10
200027b2:	00e79023          	sh	a4,0(a5)
200027b6:	400117b7          	lui	a5,0x40011
200027ba:	c0c78793          	addi	a5,a5,-1012 # 40010c0c <__stack_top+0x200090d0>
200027be:	0007d783          	lhu	a5,0(a5)
200027c2:	01079693          	slli	a3,a5,0x10
200027c6:	82c1                	srli	a3,a3,0x10
200027c8:	400117b7          	lui	a5,0x40011
200027cc:	c0c78793          	addi	a5,a5,-1012 # 40010c0c <__stack_top+0x200090d0>
200027d0:	6711                	lui	a4,0x4
200027d2:	8f55                	or	a4,a4,a3
200027d4:	0742                	slli	a4,a4,0x10
200027d6:	8341                	srli	a4,a4,0x10
200027d8:	00e79023          	sh	a4,0(a5)
200027dc:	fef44783          	lbu	a5,-17(s0)
200027e0:	85be                	mv	a1,a5
200027e2:	40013537          	lui	a0,0x40013
200027e6:	f32ff0ef          	jal	20001f18 <SPI_WriteByte>
200027ea:	400117b7          	lui	a5,0x40011
200027ee:	c0c78793          	addi	a5,a5,-1012 # 40010c0c <__stack_top+0x200090d0>
200027f2:	0007d783          	lhu	a5,0(a5)
200027f6:	01079693          	slli	a3,a5,0x10
200027fa:	82c1                	srli	a3,a3,0x10
200027fc:	400117b7          	lui	a5,0x40011
20002800:	c0c78793          	addi	a5,a5,-1012 # 40010c0c <__stack_top+0x200090d0>
20002804:	7761                	lui	a4,0xffff8
20002806:	8f55                	or	a4,a4,a3
20002808:	0742                	slli	a4,a4,0x10
2000280a:	8341                	srli	a4,a4,0x10
2000280c:	00e79023          	sh	a4,0(a5)
20002810:	0001                	nop
20002812:	40f2                	lw	ra,28(sp)
20002814:	4462                	lw	s0,24(sp)
20002816:	6105                	addi	sp,sp,32
20002818:	8082                	ret

2000281a <_lcd_write_16bit_data>:
2000281a:	1101                	addi	sp,sp,-32
2000281c:	ce06                	sw	ra,28(sp)
2000281e:	cc22                	sw	s0,24(sp)
20002820:	1000                	addi	s0,sp,32
20002822:	87aa                	mv	a5,a0
20002824:	fef41723          	sh	a5,-18(s0)
20002828:	400117b7          	lui	a5,0x40011
2000282c:	c0c78793          	addi	a5,a5,-1012 # 40010c0c <__stack_top+0x200090d0>
20002830:	0007d783          	lhu	a5,0(a5)
20002834:	01079693          	slli	a3,a5,0x10
20002838:	82c1                	srli	a3,a3,0x10
2000283a:	400117b7          	lui	a5,0x40011
2000283e:	c0c78793          	addi	a5,a5,-1012 # 40010c0c <__stack_top+0x200090d0>
20002842:	6721                	lui	a4,0x8
20002844:	177d                	addi	a4,a4,-1 # 7fff <_start-0x1fff8001>
20002846:	8f75                	and	a4,a4,a3
20002848:	0742                	slli	a4,a4,0x10
2000284a:	8341                	srli	a4,a4,0x10
2000284c:	00e79023          	sh	a4,0(a5)
20002850:	400117b7          	lui	a5,0x40011
20002854:	c0c78793          	addi	a5,a5,-1012 # 40010c0c <__stack_top+0x200090d0>
20002858:	0007d783          	lhu	a5,0(a5)
2000285c:	01079693          	slli	a3,a5,0x10
20002860:	82c1                	srli	a3,a3,0x10
20002862:	400117b7          	lui	a5,0x40011
20002866:	c0c78793          	addi	a5,a5,-1012 # 40010c0c <__stack_top+0x200090d0>
2000286a:	6711                	lui	a4,0x4
2000286c:	8f55                	or	a4,a4,a3
2000286e:	0742                	slli	a4,a4,0x10
20002870:	8341                	srli	a4,a4,0x10
20002872:	00e79023          	sh	a4,0(a5)
20002876:	200077b7          	lui	a5,0x20007
2000287a:	df07a783          	lw	a5,-528(a5) # 20006df0 <_option>
2000287e:	8b89                	andi	a5,a5,2
20002880:	c79d                	beqz	a5,200028ae <_lcd_write_16bit_data+0x94>
20002882:	fee45783          	lhu	a5,-18(s0)
20002886:	83a1                	srli	a5,a5,0x8
20002888:	07c2                	slli	a5,a5,0x10
2000288a:	83c1                	srli	a5,a5,0x10
2000288c:	0ff7f793          	zext.b	a5,a5
20002890:	85be                	mv	a1,a5
20002892:	40013537          	lui	a0,0x40013
20002896:	e82ff0ef          	jal	20001f18 <SPI_WriteByte>
2000289a:	fee45783          	lhu	a5,-18(s0)
2000289e:	0ff7f793          	zext.b	a5,a5
200028a2:	85be                	mv	a1,a5
200028a4:	40013537          	lui	a0,0x40013
200028a8:	e70ff0ef          	jal	20001f18 <SPI_WriteByte>
200028ac:	a08d                	j	2000290e <_lcd_write_16bit_data+0xf4>
200028ae:	200077b7          	lui	a5,0x20007
200028b2:	df07a783          	lw	a5,-528(a5) # 20006df0 <_option>
200028b6:	8b85                	andi	a5,a5,1
200028b8:	cbb9                	beqz	a5,2000290e <_lcd_write_16bit_data+0xf4>
200028ba:	fee45783          	lhu	a5,-18(s0)
200028be:	83a1                	srli	a5,a5,0x8
200028c0:	07c2                	slli	a5,a5,0x10
200028c2:	83c1                	srli	a5,a5,0x10
200028c4:	0ff7f793          	zext.b	a5,a5
200028c8:	9be1                	andi	a5,a5,-8
200028ca:	0ff7f793          	zext.b	a5,a5
200028ce:	85be                	mv	a1,a5
200028d0:	40013537          	lui	a0,0x40013
200028d4:	e44ff0ef          	jal	20001f18 <SPI_WriteByte>
200028d8:	fee45783          	lhu	a5,-18(s0)
200028dc:	838d                	srli	a5,a5,0x3
200028de:	07c2                	slli	a5,a5,0x10
200028e0:	83c1                	srli	a5,a5,0x10
200028e2:	0ff7f793          	zext.b	a5,a5
200028e6:	9bf1                	andi	a5,a5,-4
200028e8:	0ff7f793          	zext.b	a5,a5
200028ec:	85be                	mv	a1,a5
200028ee:	40013537          	lui	a0,0x40013
200028f2:	e26ff0ef          	jal	20001f18 <SPI_WriteByte>
200028f6:	fee45783          	lhu	a5,-18(s0)
200028fa:	0ff7f793          	zext.b	a5,a5
200028fe:	078e                	slli	a5,a5,0x3
20002900:	0ff7f793          	zext.b	a5,a5
20002904:	85be                	mv	a1,a5
20002906:	40013537          	lui	a0,0x40013
2000290a:	e0eff0ef          	jal	20001f18 <SPI_WriteByte>
2000290e:	400117b7          	lui	a5,0x40011
20002912:	c0c78793          	addi	a5,a5,-1012 # 40010c0c <__stack_top+0x200090d0>
20002916:	0007d783          	lhu	a5,0(a5)
2000291a:	01079693          	slli	a3,a5,0x10
2000291e:	82c1                	srli	a3,a3,0x10
20002920:	400117b7          	lui	a5,0x40011
20002924:	c0c78793          	addi	a5,a5,-1012 # 40010c0c <__stack_top+0x200090d0>
20002928:	7761                	lui	a4,0xffff8
2000292a:	8f55                	or	a4,a4,a3
2000292c:	0742                	slli	a4,a4,0x10
2000292e:	8341                	srli	a4,a4,0x10
20002930:	00e79023          	sh	a4,0(a5)
20002934:	0001                	nop
20002936:	40f2                	lw	ra,28(sp)
20002938:	4462                	lw	s0,24(sp)
2000293a:	6105                	addi	sp,sp,32
2000293c:	8082                	ret

2000293e <_tft_lcd_setwindow>:
2000293e:	1101                	addi	sp,sp,-32
20002940:	ce06                	sw	ra,28(sp)
20002942:	cc22                	sw	s0,24(sp)
20002944:	1000                	addi	s0,sp,32
20002946:	87aa                	mv	a5,a0
20002948:	8736                	mv	a4,a3
2000294a:	fef41723          	sh	a5,-18(s0)
2000294e:	87ae                	mv	a5,a1
20002950:	fef41623          	sh	a5,-20(s0)
20002954:	87b2                	mv	a5,a2
20002956:	fef41523          	sh	a5,-22(s0)
2000295a:	87ba                	mv	a5,a4
2000295c:	fef41423          	sh	a5,-24(s0)
20002960:	200077b7          	lui	a5,0x20007
20002964:	dd478793          	addi	a5,a5,-556 # 20006dd4 <lcddev>
20002968:	00a7d783          	lhu	a5,10(a5)
2000296c:	0ff7f793          	zext.b	a5,a5
20002970:	853e                	mv	a0,a5
20002972:	3b8d                	jal	200026e4 <lcd_write_register>
20002974:	fee45783          	lhu	a5,-18(s0)
20002978:	83a1                	srli	a5,a5,0x8
2000297a:	07c2                	slli	a5,a5,0x10
2000297c:	83c1                	srli	a5,a5,0x10
2000297e:	0ff7f793          	zext.b	a5,a5
20002982:	853e                	mv	a0,a5
20002984:	3bf5                	jal	20002780 <lcd_write_data>
20002986:	fee45783          	lhu	a5,-18(s0)
2000298a:	0ff7f793          	zext.b	a5,a5
2000298e:	853e                	mv	a0,a5
20002990:	3bc5                	jal	20002780 <lcd_write_data>
20002992:	fea45783          	lhu	a5,-22(s0)
20002996:	83a1                	srli	a5,a5,0x8
20002998:	07c2                	slli	a5,a5,0x10
2000299a:	83c1                	srli	a5,a5,0x10
2000299c:	0ff7f793          	zext.b	a5,a5
200029a0:	853e                	mv	a0,a5
200029a2:	3bf9                	jal	20002780 <lcd_write_data>
200029a4:	fea45783          	lhu	a5,-22(s0)
200029a8:	0ff7f793          	zext.b	a5,a5
200029ac:	853e                	mv	a0,a5
200029ae:	3bc9                	jal	20002780 <lcd_write_data>
200029b0:	4501                	li	a0,0
200029b2:	3b0d                	jal	200026e4 <lcd_write_register>
200029b4:	200077b7          	lui	a5,0x20007
200029b8:	dd478793          	addi	a5,a5,-556 # 20006dd4 <lcddev>
200029bc:	00c7d783          	lhu	a5,12(a5)
200029c0:	0ff7f793          	zext.b	a5,a5
200029c4:	853e                	mv	a0,a5
200029c6:	3b39                	jal	200026e4 <lcd_write_register>
200029c8:	fec45783          	lhu	a5,-20(s0)
200029cc:	83a1                	srli	a5,a5,0x8
200029ce:	07c2                	slli	a5,a5,0x10
200029d0:	83c1                	srli	a5,a5,0x10
200029d2:	0ff7f793          	zext.b	a5,a5
200029d6:	853e                	mv	a0,a5
200029d8:	3365                	jal	20002780 <lcd_write_data>
200029da:	fec45783          	lhu	a5,-20(s0)
200029de:	0ff7f793          	zext.b	a5,a5
200029e2:	853e                	mv	a0,a5
200029e4:	3b71                	jal	20002780 <lcd_write_data>
200029e6:	fe845783          	lhu	a5,-24(s0)
200029ea:	83a1                	srli	a5,a5,0x8
200029ec:	07c2                	slli	a5,a5,0x10
200029ee:	83c1                	srli	a5,a5,0x10
200029f0:	0ff7f793          	zext.b	a5,a5
200029f4:	853e                	mv	a0,a5
200029f6:	3369                	jal	20002780 <lcd_write_data>
200029f8:	fe845783          	lhu	a5,-24(s0)
200029fc:	0ff7f793          	zext.b	a5,a5
20002a00:	853e                	mv	a0,a5
20002a02:	3bbd                	jal	20002780 <lcd_write_data>
20002a04:	4501                	li	a0,0
20002a06:	39f9                	jal	200026e4 <lcd_write_register>
20002a08:	200077b7          	lui	a5,0x20007
20002a0c:	dd478793          	addi	a5,a5,-556 # 20006dd4 <lcddev>
20002a10:	0087d783          	lhu	a5,8(a5)
20002a14:	0ff7f793          	zext.b	a5,a5
20002a18:	853e                	mv	a0,a5
20002a1a:	31e9                	jal	200026e4 <lcd_write_register>
20002a1c:	0001                	nop
20002a1e:	40f2                	lw	ra,28(sp)
20002a20:	4462                	lw	s0,24(sp)
20002a22:	6105                	addi	sp,sp,32
20002a24:	8082                	ret

20002a26 <tft_fill_colour>:
20002a26:	7179                	addi	sp,sp,-48
20002a28:	d606                	sw	ra,44(sp)
20002a2a:	d422                	sw	s0,40(sp)
20002a2c:	1800                	addi	s0,sp,48
20002a2e:	87aa                	mv	a5,a0
20002a30:	fcf41f23          	sh	a5,-34(s0)
20002a34:	200077b7          	lui	a5,0x20007
20002a38:	dd478793          	addi	a5,a5,-556 # 20006dd4 <lcddev>
20002a3c:	0007d783          	lhu	a5,0(a5)
20002a40:	17fd                	addi	a5,a5,-1
20002a42:	01079713          	slli	a4,a5,0x10
20002a46:	8341                	srli	a4,a4,0x10
20002a48:	200077b7          	lui	a5,0x20007
20002a4c:	dd478793          	addi	a5,a5,-556 # 20006dd4 <lcddev>
20002a50:	0027d783          	lhu	a5,2(a5)
20002a54:	17fd                	addi	a5,a5,-1
20002a56:	07c2                	slli	a5,a5,0x10
20002a58:	83c1                	srli	a5,a5,0x10
20002a5a:	86be                	mv	a3,a5
20002a5c:	863a                	mv	a2,a4
20002a5e:	4581                	li	a1,0
20002a60:	4501                	li	a0,0
20002a62:	3df1                	jal	2000293e <_tft_lcd_setwindow>
20002a64:	400117b7          	lui	a5,0x40011
20002a68:	c0c78793          	addi	a5,a5,-1012 # 40010c0c <__stack_top+0x200090d0>
20002a6c:	0007d783          	lhu	a5,0(a5)
20002a70:	01079693          	slli	a3,a5,0x10
20002a74:	82c1                	srli	a3,a3,0x10
20002a76:	400117b7          	lui	a5,0x40011
20002a7a:	c0c78793          	addi	a5,a5,-1012 # 40010c0c <__stack_top+0x200090d0>
20002a7e:	6721                	lui	a4,0x8
20002a80:	177d                	addi	a4,a4,-1 # 7fff <_start-0x1fff8001>
20002a82:	8f75                	and	a4,a4,a3
20002a84:	0742                	slli	a4,a4,0x10
20002a86:	8341                	srli	a4,a4,0x10
20002a88:	00e79023          	sh	a4,0(a5)
20002a8c:	400117b7          	lui	a5,0x40011
20002a90:	c0c78793          	addi	a5,a5,-1012 # 40010c0c <__stack_top+0x200090d0>
20002a94:	0007d783          	lhu	a5,0(a5)
20002a98:	01079693          	slli	a3,a5,0x10
20002a9c:	82c1                	srli	a3,a3,0x10
20002a9e:	400117b7          	lui	a5,0x40011
20002aa2:	c0c78793          	addi	a5,a5,-1012 # 40010c0c <__stack_top+0x200090d0>
20002aa6:	6711                	lui	a4,0x4
20002aa8:	8f55                	or	a4,a4,a3
20002aaa:	0742                	slli	a4,a4,0x10
20002aac:	8341                	srli	a4,a4,0x10
20002aae:	00e79023          	sh	a4,0(a5)
20002ab2:	fe042623          	sw	zero,-20(s0)
20002ab6:	a82d                	j	20002af0 <tft_fill_colour+0xca>
20002ab8:	fe042423          	sw	zero,-24(s0)
20002abc:	a811                	j	20002ad0 <tft_fill_colour+0xaa>
20002abe:	fde45783          	lhu	a5,-34(s0)
20002ac2:	853e                	mv	a0,a5
20002ac4:	3b99                	jal	2000281a <_lcd_write_16bit_data>
20002ac6:	fe842783          	lw	a5,-24(s0)
20002aca:	0785                	addi	a5,a5,1
20002acc:	fef42423          	sw	a5,-24(s0)
20002ad0:	200077b7          	lui	a5,0x20007
20002ad4:	dd478793          	addi	a5,a5,-556 # 20006dd4 <lcddev>
20002ad8:	0007d783          	lhu	a5,0(a5)
20002adc:	873e                	mv	a4,a5
20002ade:	fe842783          	lw	a5,-24(s0)
20002ae2:	fce7eee3          	bltu	a5,a4,20002abe <tft_fill_colour+0x98>
20002ae6:	fec42783          	lw	a5,-20(s0)
20002aea:	0785                	addi	a5,a5,1
20002aec:	fef42623          	sw	a5,-20(s0)
20002af0:	200077b7          	lui	a5,0x20007
20002af4:	dd478793          	addi	a5,a5,-556 # 20006dd4 <lcddev>
20002af8:	0027d783          	lhu	a5,2(a5)
20002afc:	873e                	mv	a4,a5
20002afe:	fec42783          	lw	a5,-20(s0)
20002b02:	fae7ebe3          	bltu	a5,a4,20002ab8 <tft_fill_colour+0x92>
20002b06:	400117b7          	lui	a5,0x40011
20002b0a:	c0c78793          	addi	a5,a5,-1012 # 40010c0c <__stack_top+0x200090d0>
20002b0e:	0007d783          	lhu	a5,0(a5)
20002b12:	01079693          	slli	a3,a5,0x10
20002b16:	82c1                	srli	a3,a3,0x10
20002b18:	400117b7          	lui	a5,0x40011
20002b1c:	c0c78793          	addi	a5,a5,-1012 # 40010c0c <__stack_top+0x200090d0>
20002b20:	7761                	lui	a4,0xffff8
20002b22:	8f55                	or	a4,a4,a3
20002b24:	0742                	slli	a4,a4,0x10
20002b26:	8341                	srli	a4,a4,0x10
20002b28:	00e79023          	sh	a4,0(a5)
20002b2c:	0001                	nop
20002b2e:	50b2                	lw	ra,44(sp)
20002b30:	5422                	lw	s0,40(sp)
20002b32:	6145                	addi	sp,sp,48
20002b34:	8082                	ret

20002b36 <LCD_SetCursor>:
20002b36:	1101                	addi	sp,sp,-32
20002b38:	ce06                	sw	ra,28(sp)
20002b3a:	cc22                	sw	s0,24(sp)
20002b3c:	1000                	addi	s0,sp,32
20002b3e:	87aa                	mv	a5,a0
20002b40:	872e                	mv	a4,a1
20002b42:	fef41723          	sh	a5,-18(s0)
20002b46:	87ba                	mv	a5,a4
20002b48:	fef41623          	sh	a5,-20(s0)
20002b4c:	fec45683          	lhu	a3,-20(s0)
20002b50:	fee45603          	lhu	a2,-18(s0)
20002b54:	fec45703          	lhu	a4,-20(s0)
20002b58:	fee45783          	lhu	a5,-18(s0)
20002b5c:	85ba                	mv	a1,a4
20002b5e:	853e                	mv	a0,a5
20002b60:	3bf9                	jal	2000293e <_tft_lcd_setwindow>
20002b62:	0001                	nop
20002b64:	40f2                	lw	ra,28(sp)
20002b66:	4462                	lw	s0,24(sp)
20002b68:	6105                	addi	sp,sp,32
20002b6a:	8082                	ret

20002b6c <_tft_lcd_direction>:
20002b6c:	1101                	addi	sp,sp,-32
20002b6e:	ce06                	sw	ra,28(sp)
20002b70:	cc22                	sw	s0,24(sp)
20002b72:	1000                	addi	s0,sp,32
20002b74:	fea42623          	sw	a0,-20(s0)
20002b78:	200077b7          	lui	a5,0x20007
20002b7c:	dd478793          	addi	a5,a5,-556 # 20006dd4 <lcddev>
20002b80:	02a00713          	li	a4,42
20002b84:	00e79523          	sh	a4,10(a5)
20002b88:	200077b7          	lui	a5,0x20007
20002b8c:	dd478793          	addi	a5,a5,-556 # 20006dd4 <lcddev>
20002b90:	02b00713          	li	a4,43
20002b94:	00e79623          	sh	a4,12(a5)
20002b98:	200077b7          	lui	a5,0x20007
20002b9c:	dd478793          	addi	a5,a5,-556 # 20006dd4 <lcddev>
20002ba0:	02c00713          	li	a4,44
20002ba4:	00e79423          	sh	a4,8(a5)
20002ba8:	fec42783          	lw	a5,-20(s0)
20002bac:	0ff7f713          	zext.b	a4,a5
20002bb0:	200077b7          	lui	a5,0x20007
20002bb4:	dd478793          	addi	a5,a5,-556 # 20006dd4 <lcddev>
20002bb8:	00e78323          	sb	a4,6(a5)
20002bbc:	fec42703          	lw	a4,-20(s0)
20002bc0:	478d                	li	a5,3
20002bc2:	0af70f63          	beq	a4,a5,20002c80 <_tft_lcd_direction+0x114>
20002bc6:	fec42703          	lw	a4,-20(s0)
20002bca:	478d                	li	a5,3
20002bcc:	0ee7c163          	blt	a5,a4,20002cae <_tft_lcd_direction+0x142>
20002bd0:	fec42703          	lw	a4,-20(s0)
20002bd4:	4789                	li	a5,2
20002bd6:	06f70e63          	beq	a4,a5,20002c52 <_tft_lcd_direction+0xe6>
20002bda:	fec42703          	lw	a4,-20(s0)
20002bde:	4789                	li	a5,2
20002be0:	0ce7c763          	blt	a5,a4,20002cae <_tft_lcd_direction+0x142>
20002be4:	fec42783          	lw	a5,-20(s0)
20002be8:	c799                	beqz	a5,20002bf6 <_tft_lcd_direction+0x8a>
20002bea:	fec42703          	lw	a4,-20(s0)
20002bee:	4785                	li	a5,1
20002bf0:	02f70a63          	beq	a4,a5,20002c24 <_tft_lcd_direction+0xb8>
20002bf4:	a86d                	j	20002cae <_tft_lcd_direction+0x142>
20002bf6:	200077b7          	lui	a5,0x20007
20002bfa:	dd478793          	addi	a5,a5,-556 # 20006dd4 <lcddev>
20002bfe:	14000713          	li	a4,320
20002c02:	00e79023          	sh	a4,0(a5)
20002c06:	200077b7          	lui	a5,0x20007
20002c0a:	dd478793          	addi	a5,a5,-556 # 20006dd4 <lcddev>
20002c0e:	1e000713          	li	a4,480
20002c12:	00e79123          	sh	a4,2(a5)
20002c16:	03600513          	li	a0,54
20002c1a:	34e9                	jal	200026e4 <lcd_write_register>
20002c1c:	04800513          	li	a0,72
20002c20:	3685                	jal	20002780 <lcd_write_data>
20002c22:	a079                	j	20002cb0 <_tft_lcd_direction+0x144>
20002c24:	200077b7          	lui	a5,0x20007
20002c28:	dd478793          	addi	a5,a5,-556 # 20006dd4 <lcddev>
20002c2c:	1e000713          	li	a4,480
20002c30:	00e79023          	sh	a4,0(a5)
20002c34:	200077b7          	lui	a5,0x20007
20002c38:	dd478793          	addi	a5,a5,-556 # 20006dd4 <lcddev>
20002c3c:	14000713          	li	a4,320
20002c40:	00e79123          	sh	a4,2(a5)
20002c44:	03600513          	li	a0,54
20002c48:	3c71                	jal	200026e4 <lcd_write_register>
20002c4a:	02800513          	li	a0,40
20002c4e:	3e0d                	jal	20002780 <lcd_write_data>
20002c50:	a085                	j	20002cb0 <_tft_lcd_direction+0x144>
20002c52:	200077b7          	lui	a5,0x20007
20002c56:	dd478793          	addi	a5,a5,-556 # 20006dd4 <lcddev>
20002c5a:	14000713          	li	a4,320
20002c5e:	00e79023          	sh	a4,0(a5)
20002c62:	200077b7          	lui	a5,0x20007
20002c66:	dd478793          	addi	a5,a5,-556 # 20006dd4 <lcddev>
20002c6a:	1e000713          	li	a4,480
20002c6e:	00e79123          	sh	a4,2(a5)
20002c72:	03600513          	li	a0,54
20002c76:	34bd                	jal	200026e4 <lcd_write_register>
20002c78:	08800513          	li	a0,136
20002c7c:	3611                	jal	20002780 <lcd_write_data>
20002c7e:	a80d                	j	20002cb0 <_tft_lcd_direction+0x144>
20002c80:	200077b7          	lui	a5,0x20007
20002c84:	dd478793          	addi	a5,a5,-556 # 20006dd4 <lcddev>
20002c88:	1e000713          	li	a4,480
20002c8c:	00e79023          	sh	a4,0(a5)
20002c90:	200077b7          	lui	a5,0x20007
20002c94:	dd478793          	addi	a5,a5,-556 # 20006dd4 <lcddev>
20002c98:	14000713          	li	a4,320
20002c9c:	00e79123          	sh	a4,2(a5)
20002ca0:	03600513          	li	a0,54
20002ca4:	3481                	jal	200026e4 <lcd_write_register>
20002ca6:	0e800513          	li	a0,232
20002caa:	3cd9                	jal	20002780 <lcd_write_data>
20002cac:	a011                	j	20002cb0 <_tft_lcd_direction+0x144>
20002cae:	0001                	nop
20002cb0:	0001                	nop
20002cb2:	40f2                	lw	ra,28(sp)
20002cb4:	4462                	lw	s0,24(sp)
20002cb6:	6105                	addi	sp,sp,32
20002cb8:	8082                	ret

20002cba <_tft_lcd_fill>:
20002cba:	7179                	addi	sp,sp,-48
20002cbc:	d606                	sw	ra,44(sp)
20002cbe:	d422                	sw	s0,40(sp)
20002cc0:	1800                	addi	s0,sp,48
20002cc2:	87aa                	mv	a5,a0
20002cc4:	fcf41f23          	sh	a5,-34(s0)
20002cc8:	87ae                	mv	a5,a1
20002cca:	fcf41e23          	sh	a5,-36(s0)
20002cce:	87b2                	mv	a5,a2
20002cd0:	fcf41d23          	sh	a5,-38(s0)
20002cd4:	87b6                	mv	a5,a3
20002cd6:	fcf41c23          	sh	a5,-40(s0)
20002cda:	87ba                	mv	a5,a4
20002cdc:	fcf41b23          	sh	a5,-42(s0)
20002ce0:	fda45783          	lhu	a5,-38(s0)
20002ce4:	873e                	mv	a4,a5
20002ce6:	fde45783          	lhu	a5,-34(s0)
20002cea:	40f707b3          	sub	a5,a4,a5
20002cee:	07c2                	slli	a5,a5,0x10
20002cf0:	83c1                	srli	a5,a5,0x10
20002cf2:	0785                	addi	a5,a5,1
20002cf4:	fef41523          	sh	a5,-22(s0)
20002cf8:	fd845783          	lhu	a5,-40(s0)
20002cfc:	873e                	mv	a4,a5
20002cfe:	fdc45783          	lhu	a5,-36(s0)
20002d02:	40f707b3          	sub	a5,a4,a5
20002d06:	07c2                	slli	a5,a5,0x10
20002d08:	83c1                	srli	a5,a5,0x10
20002d0a:	0785                	addi	a5,a5,1
20002d0c:	fef41423          	sh	a5,-24(s0)
20002d10:	fd845683          	lhu	a3,-40(s0)
20002d14:	fda45603          	lhu	a2,-38(s0)
20002d18:	fdc45703          	lhu	a4,-36(s0)
20002d1c:	fde45783          	lhu	a5,-34(s0)
20002d20:	85ba                	mv	a1,a4
20002d22:	853e                	mv	a0,a5
20002d24:	3929                	jal	2000293e <_tft_lcd_setwindow>
20002d26:	400117b7          	lui	a5,0x40011
20002d2a:	c0c78793          	addi	a5,a5,-1012 # 40010c0c <__stack_top+0x200090d0>
20002d2e:	0007d783          	lhu	a5,0(a5)
20002d32:	01079693          	slli	a3,a5,0x10
20002d36:	82c1                	srli	a3,a3,0x10
20002d38:	400117b7          	lui	a5,0x40011
20002d3c:	c0c78793          	addi	a5,a5,-1012 # 40010c0c <__stack_top+0x200090d0>
20002d40:	6721                	lui	a4,0x8
20002d42:	177d                	addi	a4,a4,-1 # 7fff <_start-0x1fff8001>
20002d44:	8f75                	and	a4,a4,a3
20002d46:	0742                	slli	a4,a4,0x10
20002d48:	8341                	srli	a4,a4,0x10
20002d4a:	00e79023          	sh	a4,0(a5)
20002d4e:	400117b7          	lui	a5,0x40011
20002d52:	c0c78793          	addi	a5,a5,-1012 # 40010c0c <__stack_top+0x200090d0>
20002d56:	0007d783          	lhu	a5,0(a5)
20002d5a:	01079693          	slli	a3,a5,0x10
20002d5e:	82c1                	srli	a3,a3,0x10
20002d60:	400117b7          	lui	a5,0x40011
20002d64:	c0c78793          	addi	a5,a5,-1012 # 40010c0c <__stack_top+0x200090d0>
20002d68:	6711                	lui	a4,0x4
20002d6a:	8f55                	or	a4,a4,a3
20002d6c:	0742                	slli	a4,a4,0x10
20002d6e:	8341                	srli	a4,a4,0x10
20002d70:	00e79023          	sh	a4,0(a5)
20002d74:	fe041723          	sh	zero,-18(s0)
20002d78:	a805                	j	20002da8 <_tft_lcd_fill+0xee>
20002d7a:	fe041623          	sh	zero,-20(s0)
20002d7e:	a811                	j	20002d92 <_tft_lcd_fill+0xd8>
20002d80:	fd645783          	lhu	a5,-42(s0)
20002d84:	853e                	mv	a0,a5
20002d86:	3c51                	jal	2000281a <_lcd_write_16bit_data>
20002d88:	fec45783          	lhu	a5,-20(s0)
20002d8c:	0785                	addi	a5,a5,1
20002d8e:	fef41623          	sh	a5,-20(s0)
20002d92:	fec45703          	lhu	a4,-20(s0)
20002d96:	fea45783          	lhu	a5,-22(s0)
20002d9a:	fef763e3          	bltu	a4,a5,20002d80 <_tft_lcd_fill+0xc6>
20002d9e:	fee45783          	lhu	a5,-18(s0)
20002da2:	0785                	addi	a5,a5,1
20002da4:	fef41723          	sh	a5,-18(s0)
20002da8:	fee45703          	lhu	a4,-18(s0)
20002dac:	fe845783          	lhu	a5,-24(s0)
20002db0:	fcf765e3          	bltu	a4,a5,20002d7a <_tft_lcd_fill+0xc0>
20002db4:	400117b7          	lui	a5,0x40011
20002db8:	c0c78793          	addi	a5,a5,-1012 # 40010c0c <__stack_top+0x200090d0>
20002dbc:	0007d783          	lhu	a5,0(a5)
20002dc0:	01079693          	slli	a3,a5,0x10
20002dc4:	82c1                	srli	a3,a3,0x10
20002dc6:	400117b7          	lui	a5,0x40011
20002dca:	c0c78793          	addi	a5,a5,-1012 # 40010c0c <__stack_top+0x200090d0>
20002dce:	7761                	lui	a4,0xffff8
20002dd0:	8f55                	or	a4,a4,a3
20002dd2:	0742                	slli	a4,a4,0x10
20002dd4:	8341                	srli	a4,a4,0x10
20002dd6:	00e79023          	sh	a4,0(a5)
20002dda:	0001                	nop
20002ddc:	50b2                	lw	ra,44(sp)
20002dde:	5422                	lw	s0,40(sp)
20002de0:	6145                	addi	sp,sp,48
20002de2:	8082                	ret

20002de4 <_draw_quadrants>:
20002de4:	7139                	addi	sp,sp,-64
20002de6:	de06                	sw	ra,60(sp)
20002de8:	dc22                	sw	s0,56(sp)
20002dea:	0080                	addi	s0,sp,64
20002dec:	fca42e23          	sw	a0,-36(s0)
20002df0:	fcb42c23          	sw	a1,-40(s0)
20002df4:	fcc42a23          	sw	a2,-44(s0)
20002df8:	fcd42823          	sw	a3,-48(s0)
20002dfc:	fce42623          	sw	a4,-52(s0)
20002e00:	fcf42423          	sw	a5,-56(s0)
20002e04:	fc842783          	lw	a5,-56(s0)
20002e08:	c3a5                	beqz	a5,20002e68 <_draw_quadrants+0x84>
20002e0a:	fd442703          	lw	a4,-44(s0)
20002e0e:	fdc42783          	lw	a5,-36(s0)
20002e12:	40f707b3          	sub	a5,a4,a5
20002e16:	fef42623          	sw	a5,-20(s0)
20002e1a:	a82d                	j	20002e54 <_draw_quadrants+0x70>
20002e1c:	fd042703          	lw	a4,-48(s0)
20002e20:	fd842783          	lw	a5,-40(s0)
20002e24:	97ba                	add	a5,a5,a4
20002e26:	fcc42603          	lw	a2,-52(s0)
20002e2a:	85be                	mv	a1,a5
20002e2c:	fec42503          	lw	a0,-20(s0)
20002e30:	20d9                	jal	20002ef6 <_tft_lcd_pixel>
20002e32:	fd042703          	lw	a4,-48(s0)
20002e36:	fd842783          	lw	a5,-40(s0)
20002e3a:	40f707b3          	sub	a5,a4,a5
20002e3e:	fcc42603          	lw	a2,-52(s0)
20002e42:	85be                	mv	a1,a5
20002e44:	fec42503          	lw	a0,-20(s0)
20002e48:	207d                	jal	20002ef6 <_tft_lcd_pixel>
20002e4a:	fec42783          	lw	a5,-20(s0)
20002e4e:	0785                	addi	a5,a5,1
20002e50:	fef42623          	sw	a5,-20(s0)
20002e54:	fd442703          	lw	a4,-44(s0)
20002e58:	fdc42783          	lw	a5,-36(s0)
20002e5c:	97ba                	add	a5,a5,a4
20002e5e:	fec42703          	lw	a4,-20(s0)
20002e62:	fae7dde3          	bge	a5,a4,20002e1c <_draw_quadrants+0x38>
20002e66:	a059                	j	20002eec <_draw_quadrants+0x108>
20002e68:	fdc42703          	lw	a4,-36(s0)
20002e6c:	fd442783          	lw	a5,-44(s0)
20002e70:	00f706b3          	add	a3,a4,a5
20002e74:	fd842703          	lw	a4,-40(s0)
20002e78:	fd042783          	lw	a5,-48(s0)
20002e7c:	97ba                	add	a5,a5,a4
20002e7e:	fcc42603          	lw	a2,-52(s0)
20002e82:	85be                	mv	a1,a5
20002e84:	8536                	mv	a0,a3
20002e86:	2885                	jal	20002ef6 <_tft_lcd_pixel>
20002e88:	fd442703          	lw	a4,-44(s0)
20002e8c:	fdc42783          	lw	a5,-36(s0)
20002e90:	40f706b3          	sub	a3,a4,a5
20002e94:	fd842703          	lw	a4,-40(s0)
20002e98:	fd042783          	lw	a5,-48(s0)
20002e9c:	97ba                	add	a5,a5,a4
20002e9e:	fcc42603          	lw	a2,-52(s0)
20002ea2:	85be                	mv	a1,a5
20002ea4:	8536                	mv	a0,a3
20002ea6:	2881                	jal	20002ef6 <_tft_lcd_pixel>
20002ea8:	fdc42703          	lw	a4,-36(s0)
20002eac:	fd442783          	lw	a5,-44(s0)
20002eb0:	00f706b3          	add	a3,a4,a5
20002eb4:	fd042703          	lw	a4,-48(s0)
20002eb8:	fd842783          	lw	a5,-40(s0)
20002ebc:	40f707b3          	sub	a5,a4,a5
20002ec0:	fcc42603          	lw	a2,-52(s0)
20002ec4:	85be                	mv	a1,a5
20002ec6:	8536                	mv	a0,a3
20002ec8:	203d                	jal	20002ef6 <_tft_lcd_pixel>
20002eca:	fd442703          	lw	a4,-44(s0)
20002ece:	fdc42783          	lw	a5,-36(s0)
20002ed2:	40f706b3          	sub	a3,a4,a5
20002ed6:	fd042703          	lw	a4,-48(s0)
20002eda:	fd842783          	lw	a5,-40(s0)
20002ede:	40f707b3          	sub	a5,a4,a5
20002ee2:	fcc42603          	lw	a2,-52(s0)
20002ee6:	85be                	mv	a1,a5
20002ee8:	8536                	mv	a0,a3
20002eea:	2031                	jal	20002ef6 <_tft_lcd_pixel>
20002eec:	0001                	nop
20002eee:	50f2                	lw	ra,60(sp)
20002ef0:	5462                	lw	s0,56(sp)
20002ef2:	6121                	addi	sp,sp,64
20002ef4:	8082                	ret

20002ef6 <_tft_lcd_pixel>:
20002ef6:	1101                	addi	sp,sp,-32
20002ef8:	ce06                	sw	ra,28(sp)
20002efa:	cc22                	sw	s0,24(sp)
20002efc:	1000                	addi	s0,sp,32
20002efe:	fea42623          	sw	a0,-20(s0)
20002f02:	feb42423          	sw	a1,-24(s0)
20002f06:	fec42223          	sw	a2,-28(s0)
20002f0a:	fec42783          	lw	a5,-20(s0)
20002f0e:	07c2                	slli	a5,a5,0x10
20002f10:	83c1                	srli	a5,a5,0x10
20002f12:	fe842703          	lw	a4,-24(s0)
20002f16:	0742                	slli	a4,a4,0x10
20002f18:	8341                	srli	a4,a4,0x10
20002f1a:	fec42683          	lw	a3,-20(s0)
20002f1e:	01069613          	slli	a2,a3,0x10
20002f22:	8241                	srli	a2,a2,0x10
20002f24:	fe842683          	lw	a3,-24(s0)
20002f28:	06c2                	slli	a3,a3,0x10
20002f2a:	82c1                	srli	a3,a3,0x10
20002f2c:	85ba                	mv	a1,a4
20002f2e:	853e                	mv	a0,a5
20002f30:	3439                	jal	2000293e <_tft_lcd_setwindow>
20002f32:	fe442783          	lw	a5,-28(s0)
20002f36:	07c2                	slli	a5,a5,0x10
20002f38:	83c1                	srli	a5,a5,0x10
20002f3a:	853e                	mv	a0,a5
20002f3c:	38f9                	jal	2000281a <_lcd_write_16bit_data>
20002f3e:	0001                	nop
20002f40:	40f2                	lw	ra,28(sp)
20002f42:	4462                	lw	s0,24(sp)
20002f44:	6105                	addi	sp,sp,32
20002f46:	8082                	ret

20002f48 <_tft_lcd_line>:
20002f48:	711d                	addi	sp,sp,-96
20002f4a:	ce86                	sw	ra,92(sp)
20002f4c:	cca2                	sw	s0,88(sp)
20002f4e:	1080                	addi	s0,sp,96
20002f50:	faa42e23          	sw	a0,-68(s0)
20002f54:	fab42c23          	sw	a1,-72(s0)
20002f58:	fac42a23          	sw	a2,-76(s0)
20002f5c:	fad42823          	sw	a3,-80(s0)
20002f60:	fae42623          	sw	a4,-84(s0)
20002f64:	fe042423          	sw	zero,-24(s0)
20002f68:	fe042223          	sw	zero,-28(s0)
20002f6c:	fb442703          	lw	a4,-76(s0)
20002f70:	fbc42783          	lw	a5,-68(s0)
20002f74:	40f707b3          	sub	a5,a4,a5
20002f78:	fef42023          	sw	a5,-32(s0)
20002f7c:	fb042703          	lw	a4,-80(s0)
20002f80:	fb842783          	lw	a5,-72(s0)
20002f84:	40f707b3          	sub	a5,a4,a5
20002f88:	fcf42e23          	sw	a5,-36(s0)
20002f8c:	fbc42783          	lw	a5,-68(s0)
20002f90:	fcf42623          	sw	a5,-52(s0)
20002f94:	fb842783          	lw	a5,-72(s0)
20002f98:	fcf42423          	sw	a5,-56(s0)
20002f9c:	fe042783          	lw	a5,-32(s0)
20002fa0:	00f05663          	blez	a5,20002fac <_tft_lcd_line+0x64>
20002fa4:	4785                	li	a5,1
20002fa6:	fcf42a23          	sw	a5,-44(s0)
20002faa:	a005                	j	20002fca <_tft_lcd_line+0x82>
20002fac:	fe042783          	lw	a5,-32(s0)
20002fb0:	e781                	bnez	a5,20002fb8 <_tft_lcd_line+0x70>
20002fb2:	fc042a23          	sw	zero,-44(s0)
20002fb6:	a811                	j	20002fca <_tft_lcd_line+0x82>
20002fb8:	57fd                	li	a5,-1
20002fba:	fcf42a23          	sw	a5,-44(s0)
20002fbe:	fe042783          	lw	a5,-32(s0)
20002fc2:	40f007b3          	neg	a5,a5
20002fc6:	fef42023          	sw	a5,-32(s0)
20002fca:	fdc42783          	lw	a5,-36(s0)
20002fce:	00f05663          	blez	a5,20002fda <_tft_lcd_line+0x92>
20002fd2:	4785                	li	a5,1
20002fd4:	fcf42823          	sw	a5,-48(s0)
20002fd8:	a005                	j	20002ff8 <_tft_lcd_line+0xb0>
20002fda:	fdc42783          	lw	a5,-36(s0)
20002fde:	e781                	bnez	a5,20002fe6 <_tft_lcd_line+0x9e>
20002fe0:	fc042823          	sw	zero,-48(s0)
20002fe4:	a811                	j	20002ff8 <_tft_lcd_line+0xb0>
20002fe6:	57fd                	li	a5,-1
20002fe8:	fcf42823          	sw	a5,-48(s0)
20002fec:	fdc42783          	lw	a5,-36(s0)
20002ff0:	40f007b3          	neg	a5,a5
20002ff4:	fcf42e23          	sw	a5,-36(s0)
20002ff8:	fe042703          	lw	a4,-32(s0)
20002ffc:	fdc42783          	lw	a5,-36(s0)
20003000:	00e7d763          	bge	a5,a4,2000300e <_tft_lcd_line+0xc6>
20003004:	fe042783          	lw	a5,-32(s0)
20003008:	fcf42c23          	sw	a5,-40(s0)
2000300c:	a029                	j	20003016 <_tft_lcd_line+0xce>
2000300e:	fdc42783          	lw	a5,-36(s0)
20003012:	fcf42c23          	sw	a5,-40(s0)
20003016:	fe041723          	sh	zero,-18(s0)
2000301a:	a069                	j	200030a4 <_tft_lcd_line+0x15c>
2000301c:	fac42603          	lw	a2,-84(s0)
20003020:	fc842583          	lw	a1,-56(s0)
20003024:	fcc42503          	lw	a0,-52(s0)
20003028:	35f9                	jal	20002ef6 <_tft_lcd_pixel>
2000302a:	fe842703          	lw	a4,-24(s0)
2000302e:	fe042783          	lw	a5,-32(s0)
20003032:	97ba                	add	a5,a5,a4
20003034:	fef42423          	sw	a5,-24(s0)
20003038:	fe442703          	lw	a4,-28(s0)
2000303c:	fdc42783          	lw	a5,-36(s0)
20003040:	97ba                	add	a5,a5,a4
20003042:	fef42223          	sw	a5,-28(s0)
20003046:	fe842703          	lw	a4,-24(s0)
2000304a:	fd842783          	lw	a5,-40(s0)
2000304e:	02e7d163          	bge	a5,a4,20003070 <_tft_lcd_line+0x128>
20003052:	fe842703          	lw	a4,-24(s0)
20003056:	fd842783          	lw	a5,-40(s0)
2000305a:	40f707b3          	sub	a5,a4,a5
2000305e:	fef42423          	sw	a5,-24(s0)
20003062:	fcc42703          	lw	a4,-52(s0)
20003066:	fd442783          	lw	a5,-44(s0)
2000306a:	97ba                	add	a5,a5,a4
2000306c:	fcf42623          	sw	a5,-52(s0)
20003070:	fe442703          	lw	a4,-28(s0)
20003074:	fd842783          	lw	a5,-40(s0)
20003078:	02e7d163          	bge	a5,a4,2000309a <_tft_lcd_line+0x152>
2000307c:	fe442703          	lw	a4,-28(s0)
20003080:	fd842783          	lw	a5,-40(s0)
20003084:	40f707b3          	sub	a5,a4,a5
20003088:	fef42223          	sw	a5,-28(s0)
2000308c:	fc842703          	lw	a4,-56(s0)
20003090:	fd042783          	lw	a5,-48(s0)
20003094:	97ba                	add	a5,a5,a4
20003096:	fcf42423          	sw	a5,-56(s0)
2000309a:	fee45783          	lhu	a5,-18(s0)
2000309e:	0785                	addi	a5,a5,1
200030a0:	fef41723          	sh	a5,-18(s0)
200030a4:	fee45703          	lhu	a4,-18(s0)
200030a8:	fd842783          	lw	a5,-40(s0)
200030ac:	0785                	addi	a5,a5,1
200030ae:	f6e7d7e3          	bge	a5,a4,2000301c <_tft_lcd_line+0xd4>
200030b2:	0001                	nop
200030b4:	0001                	nop
200030b6:	40f6                	lw	ra,92(sp)
200030b8:	4466                	lw	s0,88(sp)
200030ba:	6125                	addi	sp,sp,96
200030bc:	8082                	ret

200030be <_tft_lcd_rect>:
200030be:	7179                	addi	sp,sp,-48
200030c0:	d606                	sw	ra,44(sp)
200030c2:	d422                	sw	s0,40(sp)
200030c4:	1800                	addi	s0,sp,48
200030c6:	fea42623          	sw	a0,-20(s0)
200030ca:	feb42423          	sw	a1,-24(s0)
200030ce:	fec42223          	sw	a2,-28(s0)
200030d2:	fed42023          	sw	a3,-32(s0)
200030d6:	fcf42c23          	sw	a5,-40(s0)
200030da:	87ba                	mv	a5,a4
200030dc:	fcf41f23          	sh	a5,-34(s0)
200030e0:	fd842783          	lw	a5,-40(s0)
200030e4:	cba9                	beqz	a5,20003136 <_tft_lcd_rect+0x78>
200030e6:	fec42783          	lw	a5,-20(s0)
200030ea:	01079513          	slli	a0,a5,0x10
200030ee:	8141                	srli	a0,a0,0x10
200030f0:	fe842783          	lw	a5,-24(s0)
200030f4:	01079593          	slli	a1,a5,0x10
200030f8:	81c1                	srli	a1,a1,0x10
200030fa:	fec42783          	lw	a5,-20(s0)
200030fe:	01079713          	slli	a4,a5,0x10
20003102:	8341                	srli	a4,a4,0x10
20003104:	fe442783          	lw	a5,-28(s0)
20003108:	07c2                	slli	a5,a5,0x10
2000310a:	83c1                	srli	a5,a5,0x10
2000310c:	97ba                	add	a5,a5,a4
2000310e:	01079613          	slli	a2,a5,0x10
20003112:	8241                	srli	a2,a2,0x10
20003114:	fe842783          	lw	a5,-24(s0)
20003118:	01079713          	slli	a4,a5,0x10
2000311c:	8341                	srli	a4,a4,0x10
2000311e:	fe042783          	lw	a5,-32(s0)
20003122:	07c2                	slli	a5,a5,0x10
20003124:	83c1                	srli	a5,a5,0x10
20003126:	97ba                	add	a5,a5,a4
20003128:	07c2                	slli	a5,a5,0x10
2000312a:	83c1                	srli	a5,a5,0x10
2000312c:	fde45703          	lhu	a4,-34(s0)
20003130:	86be                	mv	a3,a5
20003132:	3661                	jal	20002cba <_tft_lcd_fill>
20003134:	a869                	j	200031ce <_tft_lcd_rect+0x110>
20003136:	fec42703          	lw	a4,-20(s0)
2000313a:	fe442783          	lw	a5,-28(s0)
2000313e:	97ba                	add	a5,a5,a4
20003140:	fde45703          	lhu	a4,-34(s0)
20003144:	fe842683          	lw	a3,-24(s0)
20003148:	863e                	mv	a2,a5
2000314a:	fe842583          	lw	a1,-24(s0)
2000314e:	fec42503          	lw	a0,-20(s0)
20003152:	3bdd                	jal	20002f48 <_tft_lcd_line>
20003154:	fe842703          	lw	a4,-24(s0)
20003158:	fe042783          	lw	a5,-32(s0)
2000315c:	97ba                	add	a5,a5,a4
2000315e:	fde45703          	lhu	a4,-34(s0)
20003162:	86be                	mv	a3,a5
20003164:	fec42603          	lw	a2,-20(s0)
20003168:	fe842583          	lw	a1,-24(s0)
2000316c:	fec42503          	lw	a0,-20(s0)
20003170:	3be1                	jal	20002f48 <_tft_lcd_line>
20003172:	fec42703          	lw	a4,-20(s0)
20003176:	fe442783          	lw	a5,-28(s0)
2000317a:	00f70533          	add	a0,a4,a5
2000317e:	fec42703          	lw	a4,-20(s0)
20003182:	fe442783          	lw	a5,-28(s0)
20003186:	00f70633          	add	a2,a4,a5
2000318a:	fe842703          	lw	a4,-24(s0)
2000318e:	fe042783          	lw	a5,-32(s0)
20003192:	97ba                	add	a5,a5,a4
20003194:	fde45703          	lhu	a4,-34(s0)
20003198:	86be                	mv	a3,a5
2000319a:	fe842583          	lw	a1,-24(s0)
2000319e:	336d                	jal	20002f48 <_tft_lcd_line>
200031a0:	fe842703          	lw	a4,-24(s0)
200031a4:	fe042783          	lw	a5,-32(s0)
200031a8:	00f705b3          	add	a1,a4,a5
200031ac:	fec42703          	lw	a4,-20(s0)
200031b0:	fe442783          	lw	a5,-28(s0)
200031b4:	00f70633          	add	a2,a4,a5
200031b8:	fe842703          	lw	a4,-24(s0)
200031bc:	fe042783          	lw	a5,-32(s0)
200031c0:	97ba                	add	a5,a5,a4
200031c2:	fde45703          	lhu	a4,-34(s0)
200031c6:	86be                	mv	a3,a5
200031c8:	fec42503          	lw	a0,-20(s0)
200031cc:	3bb5                	jal	20002f48 <_tft_lcd_line>
200031ce:	0001                	nop
200031d0:	50b2                	lw	ra,44(sp)
200031d2:	5422                	lw	s0,40(sp)
200031d4:	6145                	addi	sp,sp,48
200031d6:	8082                	ret

200031d8 <_tft_lcd_ellipse>:
200031d8:	715d                	addi	sp,sp,-80
200031da:	c686                	sw	ra,76(sp)
200031dc:	c4a2                	sw	s0,72(sp)
200031de:	0880                	addi	s0,sp,80
200031e0:	fca42623          	sw	a0,-52(s0)
200031e4:	fcb42423          	sw	a1,-56(s0)
200031e8:	fcc42223          	sw	a2,-60(s0)
200031ec:	fcd42023          	sw	a3,-64(s0)
200031f0:	fae42e23          	sw	a4,-68(s0)
200031f4:	faf42c23          	sw	a5,-72(s0)
200031f8:	fe042023          	sw	zero,-32(s0)
200031fc:	fc042783          	lw	a5,-64(s0)
20003200:	fcf42e23          	sw	a5,-36(s0)
20003204:	fc042783          	lw	a5,-64(s0)
20003208:	02f78733          	mul	a4,a5,a5
2000320c:	fc442783          	lw	a5,-60(s0)
20003210:	02f786b3          	mul	a3,a5,a5
20003214:	fc042783          	lw	a5,-64(s0)
20003218:	02f687b3          	mul	a5,a3,a5
2000321c:	40f707b3          	sub	a5,a4,a5
20003220:	d007f753          	fcvt.s.w	fa4,a5
20003224:	fc442783          	lw	a5,-60(s0)
20003228:	d007f6d3          	fcvt.s.w	fa3,a5
2000322c:	200077b7          	lui	a5,0x20007
20003230:	b847a787          	flw	fa5,-1148(a5) # 20006b84 <_malloc_usable_size_r+0x3c>
20003234:	10f6f6d3          	fmul.s	fa3,fa3,fa5
20003238:	fc442783          	lw	a5,-60(s0)
2000323c:	d007f7d3          	fcvt.s.w	fa5,a5
20003240:	10f6f7d3          	fmul.s	fa5,fa3,fa5
20003244:	00f777d3          	fadd.s	fa5,fa4,fa5
20003248:	fef42627          	fsw	fa5,-20(s0)
2000324c:	fc042783          	lw	a5,-64(s0)
20003250:	02f78733          	mul	a4,a5,a5
20003254:	fe042783          	lw	a5,-32(s0)
20003258:	02f707b3          	mul	a5,a4,a5
2000325c:	0786                	slli	a5,a5,0x1
2000325e:	d007f7d3          	fcvt.s.w	fa5,a5
20003262:	fef42427          	fsw	fa5,-24(s0)
20003266:	fc442783          	lw	a5,-60(s0)
2000326a:	02f78733          	mul	a4,a5,a5
2000326e:	fdc42783          	lw	a5,-36(s0)
20003272:	02f707b3          	mul	a5,a4,a5
20003276:	0786                	slli	a5,a5,0x1
20003278:	d007f7d3          	fcvt.s.w	fa5,a5
2000327c:	fef42227          	fsw	fa5,-28(s0)
20003280:	a0cd                	j	20003362 <_tft_lcd_ellipse+0x18a>
20003282:	fb842783          	lw	a5,-72(s0)
20003286:	fbc42703          	lw	a4,-68(s0)
2000328a:	fc842683          	lw	a3,-56(s0)
2000328e:	fcc42603          	lw	a2,-52(s0)
20003292:	fdc42583          	lw	a1,-36(s0)
20003296:	fe042503          	lw	a0,-32(s0)
2000329a:	36a9                	jal	20002de4 <_draw_quadrants>
2000329c:	fec42787          	flw	fa5,-20(s0)
200032a0:	f0000753          	fmv.w.x	fa4,zero
200032a4:	a0e797d3          	flt.s	a5,fa5,fa4
200032a8:	e391                	bnez	a5,200032ac <_tft_lcd_ellipse+0xd4>
200032aa:	a0a1                	j	200032f2 <_tft_lcd_ellipse+0x11a>
200032ac:	fe042783          	lw	a5,-32(s0)
200032b0:	0785                	addi	a5,a5,1
200032b2:	fef42023          	sw	a5,-32(s0)
200032b6:	fc042783          	lw	a5,-64(s0)
200032ba:	02f787b3          	mul	a5,a5,a5
200032be:	0786                	slli	a5,a5,0x1
200032c0:	d007f7d3          	fcvt.s.w	fa5,a5
200032c4:	fe842707          	flw	fa4,-24(s0)
200032c8:	00f777d3          	fadd.s	fa5,fa4,fa5
200032cc:	fef42427          	fsw	fa5,-24(s0)
200032d0:	fec42707          	flw	fa4,-20(s0)
200032d4:	fe842787          	flw	fa5,-24(s0)
200032d8:	00f77753          	fadd.s	fa4,fa4,fa5
200032dc:	fc042783          	lw	a5,-64(s0)
200032e0:	02f787b3          	mul	a5,a5,a5
200032e4:	d007f7d3          	fcvt.s.w	fa5,a5
200032e8:	00f777d3          	fadd.s	fa5,fa4,fa5
200032ec:	fef42627          	fsw	fa5,-20(s0)
200032f0:	a88d                	j	20003362 <_tft_lcd_ellipse+0x18a>
200032f2:	fe042783          	lw	a5,-32(s0)
200032f6:	0785                	addi	a5,a5,1
200032f8:	fef42023          	sw	a5,-32(s0)
200032fc:	fdc42783          	lw	a5,-36(s0)
20003300:	17fd                	addi	a5,a5,-1
20003302:	fcf42e23          	sw	a5,-36(s0)
20003306:	fc042783          	lw	a5,-64(s0)
2000330a:	02f787b3          	mul	a5,a5,a5
2000330e:	0786                	slli	a5,a5,0x1
20003310:	d007f7d3          	fcvt.s.w	fa5,a5
20003314:	fe842707          	flw	fa4,-24(s0)
20003318:	00f777d3          	fadd.s	fa5,fa4,fa5
2000331c:	fef42427          	fsw	fa5,-24(s0)
20003320:	fc442783          	lw	a5,-60(s0)
20003324:	02f787b3          	mul	a5,a5,a5
20003328:	0786                	slli	a5,a5,0x1
2000332a:	d007f7d3          	fcvt.s.w	fa5,a5
2000332e:	fe442707          	flw	fa4,-28(s0)
20003332:	08f777d3          	fsub.s	fa5,fa4,fa5
20003336:	fef42227          	fsw	fa5,-28(s0)
2000333a:	fec42707          	flw	fa4,-20(s0)
2000333e:	fe842787          	flw	fa5,-24(s0)
20003342:	00f77753          	fadd.s	fa4,fa4,fa5
20003346:	fe442787          	flw	fa5,-28(s0)
2000334a:	08f77753          	fsub.s	fa4,fa4,fa5
2000334e:	fc042783          	lw	a5,-64(s0)
20003352:	02f787b3          	mul	a5,a5,a5
20003356:	d007f7d3          	fcvt.s.w	fa5,a5
2000335a:	00f777d3          	fadd.s	fa5,fa4,fa5
2000335e:	fef42627          	fsw	fa5,-20(s0)
20003362:	fe842707          	flw	fa4,-24(s0)
20003366:	fe442787          	flw	fa5,-28(s0)
2000336a:	a0f717d3          	flt.s	a5,fa4,fa5
2000336e:	fb91                	bnez	a5,20003282 <_tft_lcd_ellipse+0xaa>
20003370:	fc042783          	lw	a5,-64(s0)
20003374:	02f787b3          	mul	a5,a5,a5
20003378:	d007f753          	fcvt.s.w	fa4,a5
2000337c:	fe042783          	lw	a5,-32(s0)
20003380:	d007f6d3          	fcvt.s.w	fa3,a5
20003384:	200077b7          	lui	a5,0x20007
20003388:	b887a787          	flw	fa5,-1144(a5) # 20006b88 <_malloc_usable_size_r+0x40>
2000338c:	00f6f6d3          	fadd.s	fa3,fa3,fa5
20003390:	fe042783          	lw	a5,-32(s0)
20003394:	d007f653          	fcvt.s.w	fa2,a5
20003398:	200077b7          	lui	a5,0x20007
2000339c:	b887a787          	flw	fa5,-1144(a5) # 20006b88 <_malloc_usable_size_r+0x40>
200033a0:	00f677d3          	fadd.s	fa5,fa2,fa5
200033a4:	10f6f7d3          	fmul.s	fa5,fa3,fa5
200033a8:	10f77753          	fmul.s	fa4,fa4,fa5
200033ac:	fc442783          	lw	a5,-60(s0)
200033b0:	02f78733          	mul	a4,a5,a5
200033b4:	fdc42783          	lw	a5,-36(s0)
200033b8:	fff78693          	addi	a3,a5,-1
200033bc:	fdc42783          	lw	a5,-36(s0)
200033c0:	17fd                	addi	a5,a5,-1
200033c2:	02f687b3          	mul	a5,a3,a5
200033c6:	02f707b3          	mul	a5,a4,a5
200033ca:	d007f7d3          	fcvt.s.w	fa5,a5
200033ce:	00f77753          	fadd.s	fa4,fa4,fa5
200033d2:	fc442783          	lw	a5,-60(s0)
200033d6:	02f78733          	mul	a4,a5,a5
200033da:	fc042783          	lw	a5,-64(s0)
200033de:	02f70733          	mul	a4,a4,a5
200033e2:	fc042783          	lw	a5,-64(s0)
200033e6:	02f707b3          	mul	a5,a4,a5
200033ea:	d007f7d3          	fcvt.s.w	fa5,a5
200033ee:	08f777d3          	fsub.s	fa5,fa4,fa5
200033f2:	fcf42c27          	fsw	fa5,-40(s0)
200033f6:	a0cd                	j	200034d8 <_tft_lcd_ellipse+0x300>
200033f8:	fb842783          	lw	a5,-72(s0)
200033fc:	fbc42703          	lw	a4,-68(s0)
20003400:	fc842683          	lw	a3,-56(s0)
20003404:	fcc42603          	lw	a2,-52(s0)
20003408:	fdc42583          	lw	a1,-36(s0)
2000340c:	fe042503          	lw	a0,-32(s0)
20003410:	3ad1                	jal	20002de4 <_draw_quadrants>
20003412:	fd842787          	flw	fa5,-40(s0)
20003416:	f0000753          	fmv.w.x	fa4,zero
2000341a:	a0f717d3          	flt.s	a5,fa4,fa5
2000341e:	e391                	bnez	a5,20003422 <_tft_lcd_ellipse+0x24a>
20003420:	a0a1                	j	20003468 <_tft_lcd_ellipse+0x290>
20003422:	fdc42783          	lw	a5,-36(s0)
20003426:	17fd                	addi	a5,a5,-1
20003428:	fcf42e23          	sw	a5,-36(s0)
2000342c:	fc442783          	lw	a5,-60(s0)
20003430:	02f787b3          	mul	a5,a5,a5
20003434:	0786                	slli	a5,a5,0x1
20003436:	d007f7d3          	fcvt.s.w	fa5,a5
2000343a:	fe442707          	flw	fa4,-28(s0)
2000343e:	08f777d3          	fsub.s	fa5,fa4,fa5
20003442:	fef42227          	fsw	fa5,-28(s0)
20003446:	fc442783          	lw	a5,-60(s0)
2000344a:	02f787b3          	mul	a5,a5,a5
2000344e:	d007f753          	fcvt.s.w	fa4,a5
20003452:	fd842787          	flw	fa5,-40(s0)
20003456:	00f77753          	fadd.s	fa4,fa4,fa5
2000345a:	fe442787          	flw	fa5,-28(s0)
2000345e:	08f777d3          	fsub.s	fa5,fa4,fa5
20003462:	fcf42c27          	fsw	fa5,-40(s0)
20003466:	a88d                	j	200034d8 <_tft_lcd_ellipse+0x300>
20003468:	fdc42783          	lw	a5,-36(s0)
2000346c:	17fd                	addi	a5,a5,-1
2000346e:	fcf42e23          	sw	a5,-36(s0)
20003472:	fe042783          	lw	a5,-32(s0)
20003476:	0785                	addi	a5,a5,1
20003478:	fef42023          	sw	a5,-32(s0)
2000347c:	fc042783          	lw	a5,-64(s0)
20003480:	02f787b3          	mul	a5,a5,a5
20003484:	0786                	slli	a5,a5,0x1
20003486:	d007f7d3          	fcvt.s.w	fa5,a5
2000348a:	fe842707          	flw	fa4,-24(s0)
2000348e:	00f777d3          	fadd.s	fa5,fa4,fa5
20003492:	fef42427          	fsw	fa5,-24(s0)
20003496:	fc442783          	lw	a5,-60(s0)
2000349a:	02f787b3          	mul	a5,a5,a5
2000349e:	0786                	slli	a5,a5,0x1
200034a0:	d007f7d3          	fcvt.s.w	fa5,a5
200034a4:	fe442707          	flw	fa4,-28(s0)
200034a8:	08f777d3          	fsub.s	fa5,fa4,fa5
200034ac:	fef42227          	fsw	fa5,-28(s0)
200034b0:	fd842707          	flw	fa4,-40(s0)
200034b4:	fe842787          	flw	fa5,-24(s0)
200034b8:	00f77753          	fadd.s	fa4,fa4,fa5
200034bc:	fe442787          	flw	fa5,-28(s0)
200034c0:	08f77753          	fsub.s	fa4,fa4,fa5
200034c4:	fc442783          	lw	a5,-60(s0)
200034c8:	02f787b3          	mul	a5,a5,a5
200034cc:	d007f7d3          	fcvt.s.w	fa5,a5
200034d0:	00f777d3          	fadd.s	fa5,fa4,fa5
200034d4:	fcf42c27          	fsw	fa5,-40(s0)
200034d8:	fdc42783          	lw	a5,-36(s0)
200034dc:	f007dee3          	bgez	a5,200033f8 <_tft_lcd_ellipse+0x220>
200034e0:	0001                	nop
200034e2:	0001                	nop
200034e4:	40b6                	lw	ra,76(sp)
200034e6:	4426                	lw	s0,72(sp)
200034e8:	6161                	addi	sp,sp,80
200034ea:	8082                	ret

200034ec <_tft_lcd_crosshair>:
200034ec:	1101                	addi	sp,sp,-32
200034ee:	ce06                	sw	ra,28(sp)
200034f0:	cc22                	sw	s0,24(sp)
200034f2:	1000                	addi	s0,sp,32
200034f4:	fea42623          	sw	a0,-20(s0)
200034f8:	feb42423          	sw	a1,-24(s0)
200034fc:	fec42223          	sw	a2,-28(s0)
20003500:	fec42783          	lw	a5,-20(s0)
20003504:	ff478513          	addi	a0,a5,-12
20003508:	fec42783          	lw	a5,-20(s0)
2000350c:	07b5                	addi	a5,a5,13
2000350e:	fe442703          	lw	a4,-28(s0)
20003512:	fe842683          	lw	a3,-24(s0)
20003516:	863e                	mv	a2,a5
20003518:	fe842583          	lw	a1,-24(s0)
2000351c:	3435                	jal	20002f48 <_tft_lcd_line>
2000351e:	fe842783          	lw	a5,-24(s0)
20003522:	ff478593          	addi	a1,a5,-12
20003526:	fe842783          	lw	a5,-24(s0)
2000352a:	07b5                	addi	a5,a5,13
2000352c:	fe442703          	lw	a4,-28(s0)
20003530:	86be                	mv	a3,a5
20003532:	fec42603          	lw	a2,-20(s0)
20003536:	fec42503          	lw	a0,-20(s0)
2000353a:	3439                	jal	20002f48 <_tft_lcd_line>
2000353c:	fec42783          	lw	a5,-20(s0)
20003540:	00178713          	addi	a4,a5,1
20003544:	fe842783          	lw	a5,-24(s0)
20003548:	0785                	addi	a5,a5,1
2000354a:	fe442603          	lw	a2,-28(s0)
2000354e:	85be                	mv	a1,a5
20003550:	853a                	mv	a0,a4
20003552:	3255                	jal	20002ef6 <_tft_lcd_pixel>
20003554:	fec42783          	lw	a5,-20(s0)
20003558:	fff78713          	addi	a4,a5,-1
2000355c:	fe842783          	lw	a5,-24(s0)
20003560:	0785                	addi	a5,a5,1
20003562:	fe442603          	lw	a2,-28(s0)
20003566:	85be                	mv	a1,a5
20003568:	853a                	mv	a0,a4
2000356a:	3271                	jal	20002ef6 <_tft_lcd_pixel>
2000356c:	fec42783          	lw	a5,-20(s0)
20003570:	00178713          	addi	a4,a5,1
20003574:	fe842783          	lw	a5,-24(s0)
20003578:	17fd                	addi	a5,a5,-1
2000357a:	fe442603          	lw	a2,-28(s0)
2000357e:	85be                	mv	a1,a5
20003580:	853a                	mv	a0,a4
20003582:	3a95                	jal	20002ef6 <_tft_lcd_pixel>
20003584:	fec42783          	lw	a5,-20(s0)
20003588:	fff78713          	addi	a4,a5,-1
2000358c:	fe842783          	lw	a5,-24(s0)
20003590:	17fd                	addi	a5,a5,-1
20003592:	fe442603          	lw	a2,-28(s0)
20003596:	85be                	mv	a1,a5
20003598:	853a                	mv	a0,a4
2000359a:	3ab1                	jal	20002ef6 <_tft_lcd_pixel>
2000359c:	4781                	li	a5,0
2000359e:	fe442703          	lw	a4,-28(s0)
200035a2:	4699                	li	a3,6
200035a4:	4619                	li	a2,6
200035a6:	fe842583          	lw	a1,-24(s0)
200035aa:	fec42503          	lw	a0,-20(s0)
200035ae:	312d                	jal	200031d8 <_tft_lcd_ellipse>
200035b0:	0001                	nop
200035b2:	40f2                	lw	ra,28(sp)
200035b4:	4462                	lw	s0,24(sp)
200035b6:	6105                	addi	sp,sp,32
200035b8:	8082                	ret

200035ba <_tft_init>:
200035ba:	1101                	addi	sp,sp,-32
200035bc:	ce06                	sw	ra,28(sp)
200035be:	cc22                	sw	s0,24(sp)
200035c0:	1000                	addi	s0,sp,32
200035c2:	fea42623          	sw	a0,-20(s0)
200035c6:	fec42783          	lw	a5,-20(s0)
200035ca:	8b9d                	andi	a5,a5,7
200035cc:	4709                	li	a4,2
200035ce:	00f74563          	blt	a4,a5,200035d8 <_tft_init+0x1e>
200035d2:	00f04963          	bgtz	a5,200035e4 <_tft_init+0x2a>
200035d6:	a021                	j	200035de <_tft_init+0x24>
200035d8:	4711                	li	a4,4
200035da:	00e78563          	beq	a5,a4,200035e4 <_tft_init+0x2a>
200035de:	4781                	li	a5,0
200035e0:	0750006f          	j	20003e54 <_tft_init+0x89a>
200035e4:	0001                	nop
200035e6:	200077b7          	lui	a5,0x20007
200035ea:	fec42703          	lw	a4,-20(s0)
200035ee:	dee7a823          	sw	a4,-528(a5) # 20006df0 <_option>
200035f2:	fec42783          	lw	a5,-20(s0)
200035f6:	8bc1                	andi	a5,a5,16
200035f8:	c3e1                	beqz	a5,200036b8 <_tft_init+0xfe>
200035fa:	400217b7          	lui	a5,0x40021
200035fe:	07e1                	addi	a5,a5,24 # 40021018 <__stack_top+0x200194dc>
20003600:	4398                	lw	a4,0(a5)
20003602:	400217b7          	lui	a5,0x40021
20003606:	07e1                	addi	a5,a5,24 # 40021018 <__stack_top+0x200194dc>
20003608:	01076713          	ori	a4,a4,16
2000360c:	c398                	sw	a4,0(a5)
2000360e:	400217b7          	lui	a5,0x40021
20003612:	07b1                	addi	a5,a5,12 # 4002100c <__stack_top+0x200194d0>
20003614:	4398                	lw	a4,0(a5)
20003616:	400217b7          	lui	a5,0x40021
2000361a:	07b1                	addi	a5,a5,12 # 4002100c <__stack_top+0x200194d0>
2000361c:	01076713          	ori	a4,a4,16
20003620:	c398                	sw	a4,0(a5)
20003622:	400217b7          	lui	a5,0x40021
20003626:	07b1                	addi	a5,a5,12 # 4002100c <__stack_top+0x200194d0>
20003628:	4398                	lw	a4,0(a5)
2000362a:	400217b7          	lui	a5,0x40021
2000362e:	07b1                	addi	a5,a5,12 # 4002100c <__stack_top+0x200194d0>
20003630:	9b3d                	andi	a4,a4,-17
20003632:	c398                	sw	a4,0(a5)
20003634:	400117b7          	lui	a5,0x40011
20003638:	4394                	lw	a3,0(a5)
2000363a:	400117b7          	lui	a5,0x40011
2000363e:	fff00737          	lui	a4,0xfff00
20003642:	8f75                	and	a4,a4,a3
20003644:	c398                	sw	a4,0(a5)
20003646:	400117b7          	lui	a5,0x40011
2000364a:	4394                	lw	a3,0(a5)
2000364c:	400117b7          	lui	a5,0x40011
20003650:	00033737          	lui	a4,0x33
20003654:	34470713          	addi	a4,a4,836 # 33344 <_start-0x1ffcccbc>
20003658:	8f55                	or	a4,a4,a3
2000365a:	c398                	sw	a4,0(a5)
2000365c:	400117b7          	lui	a5,0x40011
20003660:	07b1                	addi	a5,a5,12 # 4001100c <__stack_top+0x200094d0>
20003662:	470d                	li	a4,3
20003664:	00e79023          	sh	a4,0(a5)
20003668:	200077b7          	lui	a5,0x20007
2000366c:	de478793          	addi	a5,a5,-540 # 20006de4 <tp_dev>
20003670:	00079023          	sh	zero,0(a5)
20003674:	200077b7          	lui	a5,0x20007
20003678:	de478793          	addi	a5,a5,-540 # 20006de4 <tp_dev>
2000367c:	00079123          	sh	zero,2(a5)
20003680:	200077b7          	lui	a5,0x20007
20003684:	de478793          	addi	a5,a5,-540 # 20006de4 <tp_dev>
20003688:	00079223          	sh	zero,4(a5)
2000368c:	200077b7          	lui	a5,0x20007
20003690:	de478793          	addi	a5,a5,-540 # 20006de4 <tp_dev>
20003694:	00079323          	sh	zero,6(a5)
20003698:	200077b7          	lui	a5,0x20007
2000369c:	de478793          	addi	a5,a5,-540 # 20006de4 <tp_dev>
200036a0:	00078423          	sb	zero,8(a5)
200036a4:	200077b7          	lui	a5,0x20007
200036a8:	dea78593          	addi	a1,a5,-534 # 20006dea <tp_dev+0x6>
200036ac:	200077b7          	lui	a5,0x20007
200036b0:	de878513          	addi	a0,a5,-536 # 20006de8 <tp_dev+0x4>
200036b4:	cbbfe0ef          	jal	2000236e <_tp_read_xy>
200036b8:	0001                	nop
200036ba:	aecfe0ef          	jal	200019a6 <_pll_init_144>
200036be:	87aa                	mv	a5,a0
200036c0:	ffed                	bnez	a5,200036ba <_tft_init+0x100>
200036c2:	400217b7          	lui	a5,0x40021
200036c6:	07f1                	addi	a5,a5,28 # 4002101c <__stack_top+0x200194e0>
200036c8:	4398                	lw	a4,0(a5)
200036ca:	400217b7          	lui	a5,0x40021
200036ce:	07f1                	addi	a5,a5,28 # 4002101c <__stack_top+0x200194e0>
200036d0:	02076713          	ori	a4,a4,32
200036d4:	c398                	sw	a4,0(a5)
200036d6:	400217b7          	lui	a5,0x40021
200036da:	07c1                	addi	a5,a5,16 # 40021010 <__stack_top+0x200194d4>
200036dc:	4398                	lw	a4,0(a5)
200036de:	400217b7          	lui	a5,0x40021
200036e2:	07c1                	addi	a5,a5,16 # 40021010 <__stack_top+0x200194d4>
200036e4:	02076713          	ori	a4,a4,32
200036e8:	c398                	sw	a4,0(a5)
200036ea:	400217b7          	lui	a5,0x40021
200036ee:	07c1                	addi	a5,a5,16 # 40021010 <__stack_top+0x200194d4>
200036f0:	4398                	lw	a4,0(a5)
200036f2:	400217b7          	lui	a5,0x40021
200036f6:	07c1                	addi	a5,a5,16 # 40021010 <__stack_top+0x200194d4>
200036f8:	fdf77713          	andi	a4,a4,-33
200036fc:	c398                	sw	a4,0(a5)
200036fe:	400017b7          	lui	a5,0x40001
20003702:	40078793          	addi	a5,a5,1024 # 40001400 <__stack_top+0x1fff98c4>
20003706:	00079023          	sh	zero,0(a5)
2000370a:	e40fe0ef          	jal	20001d4a <tft_display_init>
2000370e:	400117b7          	lui	a5,0x40011
20003712:	c0c78793          	addi	a5,a5,-1012 # 40010c0c <__stack_top+0x200090d0>
20003716:	0007d783          	lhu	a5,0(a5)
2000371a:	01079693          	slli	a3,a5,0x10
2000371e:	82c1                	srli	a3,a3,0x10
20003720:	400117b7          	lui	a5,0x40011
20003724:	c0c78793          	addi	a5,a5,-1012 # 40010c0c <__stack_top+0x200090d0>
20003728:	7779                	lui	a4,0xffffe
2000372a:	177d                	addi	a4,a4,-1 # ffffdfff <__stack_top+0xdfff64c3>
2000372c:	8f75                	and	a4,a4,a3
2000372e:	0742                	slli	a4,a4,0x10
20003730:	8341                	srli	a4,a4,0x10
20003732:	00e79023          	sh	a4,0(a5)
20003736:	400117b7          	lui	a5,0x40011
2000373a:	c0c78793          	addi	a5,a5,-1012 # 40010c0c <__stack_top+0x200090d0>
2000373e:	0007d783          	lhu	a5,0(a5)
20003742:	01079693          	slli	a3,a5,0x10
20003746:	82c1                	srli	a3,a3,0x10
20003748:	400117b7          	lui	a5,0x40011
2000374c:	c0c78793          	addi	a5,a5,-1012 # 40010c0c <__stack_top+0x200090d0>
20003750:	777d                	lui	a4,0xfffff
20003752:	177d                	addi	a4,a4,-1 # ffffefff <__stack_top+0xdfff74c3>
20003754:	8f75                	and	a4,a4,a3
20003756:	0742                	slli	a4,a4,0x10
20003758:	8341                	srli	a4,a4,0x10
2000375a:	00e79023          	sh	a4,0(a5)
2000375e:	0c800513          	li	a0,200
20003762:	c96fe0ef          	jal	20001bf8 <_delay_ms>
20003766:	400117b7          	lui	a5,0x40011
2000376a:	c0c78793          	addi	a5,a5,-1012 # 40010c0c <__stack_top+0x200090d0>
2000376e:	0007d783          	lhu	a5,0(a5)
20003772:	01079693          	slli	a3,a5,0x10
20003776:	82c1                	srli	a3,a3,0x10
20003778:	400117b7          	lui	a5,0x40011
2000377c:	c0c78793          	addi	a5,a5,-1012 # 40010c0c <__stack_top+0x200090d0>
20003780:	6705                	lui	a4,0x1
20003782:	8f55                	or	a4,a4,a3
20003784:	0742                	slli	a4,a4,0x10
20003786:	8341                	srli	a4,a4,0x10
20003788:	00e79023          	sh	a4,0(a5)
2000378c:	07800513          	li	a0,120
20003790:	c68fe0ef          	jal	20001bf8 <_delay_ms>
20003794:	4505                	li	a0,1
20003796:	f4ffe0ef          	jal	200026e4 <lcd_write_register>
2000379a:	fec42783          	lw	a5,-20(s0)
2000379e:	8b89                	andi	a5,a5,2
200037a0:	24078763          	beqz	a5,200039ee <_tft_init+0x434>
200037a4:	0f000513          	li	a0,240
200037a8:	f3dfe0ef          	jal	200026e4 <lcd_write_register>
200037ac:	0c300513          	li	a0,195
200037b0:	fd1fe0ef          	jal	20002780 <lcd_write_data>
200037b4:	0f000513          	li	a0,240
200037b8:	f2dfe0ef          	jal	200026e4 <lcd_write_register>
200037bc:	09600513          	li	a0,150
200037c0:	fc1fe0ef          	jal	20002780 <lcd_write_data>
200037c4:	03600513          	li	a0,54
200037c8:	f1dfe0ef          	jal	200026e4 <lcd_write_register>
200037cc:	06800513          	li	a0,104
200037d0:	fb1fe0ef          	jal	20002780 <lcd_write_data>
200037d4:	03a00513          	li	a0,58
200037d8:	f0dfe0ef          	jal	200026e4 <lcd_write_register>
200037dc:	4515                	li	a0,5
200037de:	fa3fe0ef          	jal	20002780 <lcd_write_data>
200037e2:	0b000513          	li	a0,176
200037e6:	efffe0ef          	jal	200026e4 <lcd_write_register>
200037ea:	08000513          	li	a0,128
200037ee:	f93fe0ef          	jal	20002780 <lcd_write_data>
200037f2:	0b600513          	li	a0,182
200037f6:	eeffe0ef          	jal	200026e4 <lcd_write_register>
200037fa:	4501                	li	a0,0
200037fc:	f85fe0ef          	jal	20002780 <lcd_write_data>
20003800:	4509                	li	a0,2
20003802:	f7ffe0ef          	jal	20002780 <lcd_write_data>
20003806:	0b500513          	li	a0,181
2000380a:	edbfe0ef          	jal	200026e4 <lcd_write_register>
2000380e:	4509                	li	a0,2
20003810:	f71fe0ef          	jal	20002780 <lcd_write_data>
20003814:	450d                	li	a0,3
20003816:	f6bfe0ef          	jal	20002780 <lcd_write_data>
2000381a:	4501                	li	a0,0
2000381c:	f65fe0ef          	jal	20002780 <lcd_write_data>
20003820:	4511                	li	a0,4
20003822:	f5ffe0ef          	jal	20002780 <lcd_write_data>
20003826:	0b100513          	li	a0,177
2000382a:	ebbfe0ef          	jal	200026e4 <lcd_write_register>
2000382e:	08000513          	li	a0,128
20003832:	f4ffe0ef          	jal	20002780 <lcd_write_data>
20003836:	4541                	li	a0,16
20003838:	f49fe0ef          	jal	20002780 <lcd_write_data>
2000383c:	0b400513          	li	a0,180
20003840:	ea5fe0ef          	jal	200026e4 <lcd_write_register>
20003844:	4501                	li	a0,0
20003846:	f3bfe0ef          	jal	20002780 <lcd_write_data>
2000384a:	0b700513          	li	a0,183
2000384e:	e97fe0ef          	jal	200026e4 <lcd_write_register>
20003852:	0c600513          	li	a0,198
20003856:	f2bfe0ef          	jal	20002780 <lcd_write_data>
2000385a:	0c500513          	li	a0,197
2000385e:	e87fe0ef          	jal	200026e4 <lcd_write_register>
20003862:	02400513          	li	a0,36
20003866:	f1bfe0ef          	jal	20002780 <lcd_write_data>
2000386a:	0e400513          	li	a0,228
2000386e:	e77fe0ef          	jal	200026e4 <lcd_write_register>
20003872:	03100513          	li	a0,49
20003876:	f0bfe0ef          	jal	20002780 <lcd_write_data>
2000387a:	0e800513          	li	a0,232
2000387e:	e67fe0ef          	jal	200026e4 <lcd_write_register>
20003882:	04000513          	li	a0,64
20003886:	efbfe0ef          	jal	20002780 <lcd_write_data>
2000388a:	08a00513          	li	a0,138
2000388e:	ef3fe0ef          	jal	20002780 <lcd_write_data>
20003892:	4501                	li	a0,0
20003894:	eedfe0ef          	jal	20002780 <lcd_write_data>
20003898:	4501                	li	a0,0
2000389a:	ee7fe0ef          	jal	20002780 <lcd_write_data>
2000389e:	02900513          	li	a0,41
200038a2:	edffe0ef          	jal	20002780 <lcd_write_data>
200038a6:	4565                	li	a0,25
200038a8:	ed9fe0ef          	jal	20002780 <lcd_write_data>
200038ac:	0a500513          	li	a0,165
200038b0:	ed1fe0ef          	jal	20002780 <lcd_write_data>
200038b4:	03300513          	li	a0,51
200038b8:	ec9fe0ef          	jal	20002780 <lcd_write_data>
200038bc:	0c200513          	li	a0,194
200038c0:	e25fe0ef          	jal	200026e4 <lcd_write_register>
200038c4:	0a700513          	li	a0,167
200038c8:	e1dfe0ef          	jal	200026e4 <lcd_write_register>
200038cc:	0e000513          	li	a0,224
200038d0:	e15fe0ef          	jal	200026e4 <lcd_write_register>
200038d4:	0f000513          	li	a0,240
200038d8:	ea9fe0ef          	jal	20002780 <lcd_write_data>
200038dc:	4525                	li	a0,9
200038de:	ea3fe0ef          	jal	20002780 <lcd_write_data>
200038e2:	454d                	li	a0,19
200038e4:	e9dfe0ef          	jal	20002780 <lcd_write_data>
200038e8:	4549                	li	a0,18
200038ea:	e97fe0ef          	jal	20002780 <lcd_write_data>
200038ee:	4549                	li	a0,18
200038f0:	e91fe0ef          	jal	20002780 <lcd_write_data>
200038f4:	02b00513          	li	a0,43
200038f8:	e89fe0ef          	jal	20002780 <lcd_write_data>
200038fc:	03c00513          	li	a0,60
20003900:	e81fe0ef          	jal	20002780 <lcd_write_data>
20003904:	04400513          	li	a0,68
20003908:	e79fe0ef          	jal	20002780 <lcd_write_data>
2000390c:	04b00513          	li	a0,75
20003910:	e71fe0ef          	jal	20002780 <lcd_write_data>
20003914:	456d                	li	a0,27
20003916:	e6bfe0ef          	jal	20002780 <lcd_write_data>
2000391a:	4561                	li	a0,24
2000391c:	e65fe0ef          	jal	20002780 <lcd_write_data>
20003920:	455d                	li	a0,23
20003922:	e5ffe0ef          	jal	20002780 <lcd_write_data>
20003926:	4575                	li	a0,29
20003928:	e59fe0ef          	jal	20002780 <lcd_write_data>
2000392c:	02100513          	li	a0,33
20003930:	e51fe0ef          	jal	20002780 <lcd_write_data>
20003934:	0e100513          	li	a0,225
20003938:	dadfe0ef          	jal	200026e4 <lcd_write_register>
2000393c:	0f000513          	li	a0,240
20003940:	e41fe0ef          	jal	20002780 <lcd_write_data>
20003944:	4525                	li	a0,9
20003946:	e3bfe0ef          	jal	20002780 <lcd_write_data>
2000394a:	454d                	li	a0,19
2000394c:	e35fe0ef          	jal	20002780 <lcd_write_data>
20003950:	4531                	li	a0,12
20003952:	e2ffe0ef          	jal	20002780 <lcd_write_data>
20003956:	4535                	li	a0,13
20003958:	e29fe0ef          	jal	20002780 <lcd_write_data>
2000395c:	02700513          	li	a0,39
20003960:	e21fe0ef          	jal	20002780 <lcd_write_data>
20003964:	03b00513          	li	a0,59
20003968:	e19fe0ef          	jal	20002780 <lcd_write_data>
2000396c:	04400513          	li	a0,68
20003970:	e11fe0ef          	jal	20002780 <lcd_write_data>
20003974:	04d00513          	li	a0,77
20003978:	e09fe0ef          	jal	20002780 <lcd_write_data>
2000397c:	452d                	li	a0,11
2000397e:	e03fe0ef          	jal	20002780 <lcd_write_data>
20003982:	455d                	li	a0,23
20003984:	dfdfe0ef          	jal	20002780 <lcd_write_data>
20003988:	455d                	li	a0,23
2000398a:	df7fe0ef          	jal	20002780 <lcd_write_data>
2000398e:	4575                	li	a0,29
20003990:	df1fe0ef          	jal	20002780 <lcd_write_data>
20003994:	02100513          	li	a0,33
20003998:	de9fe0ef          	jal	20002780 <lcd_write_data>
2000399c:	03600513          	li	a0,54
200039a0:	d45fe0ef          	jal	200026e4 <lcd_write_register>
200039a4:	0ec00513          	li	a0,236
200039a8:	dd9fe0ef          	jal	20002780 <lcd_write_data>
200039ac:	0f000513          	li	a0,240
200039b0:	d35fe0ef          	jal	200026e4 <lcd_write_register>
200039b4:	0c300513          	li	a0,195
200039b8:	dc9fe0ef          	jal	20002780 <lcd_write_data>
200039bc:	0f000513          	li	a0,240
200039c0:	d25fe0ef          	jal	200026e4 <lcd_write_register>
200039c4:	06900513          	li	a0,105
200039c8:	db9fe0ef          	jal	20002780 <lcd_write_data>
200039cc:	454d                	li	a0,19
200039ce:	d17fe0ef          	jal	200026e4 <lcd_write_register>
200039d2:	454d                	li	a0,19
200039d4:	d11fe0ef          	jal	200026e4 <lcd_write_register>
200039d8:	4545                	li	a0,17
200039da:	d0bfe0ef          	jal	200026e4 <lcd_write_register>
200039de:	02900513          	li	a0,41
200039e2:	d03fe0ef          	jal	200026e4 <lcd_write_register>
200039e6:	4505                	li	a0,1
200039e8:	984ff0ef          	jal	20002b6c <_tft_lcd_direction>
200039ec:	a111                	j	20003df0 <_tft_init+0x836>
200039ee:	fec42783          	lw	a5,-20(s0)
200039f2:	8b85                	andi	a5,a5,1
200039f4:	1e078763          	beqz	a5,20003be2 <_tft_init+0x628>
200039f8:	0f700513          	li	a0,247
200039fc:	ce9fe0ef          	jal	200026e4 <lcd_write_register>
20003a00:	0a900513          	li	a0,169
20003a04:	d7dfe0ef          	jal	20002780 <lcd_write_data>
20003a08:	05100513          	li	a0,81
20003a0c:	d75fe0ef          	jal	20002780 <lcd_write_data>
20003a10:	02c00513          	li	a0,44
20003a14:	d6dfe0ef          	jal	20002780 <lcd_write_data>
20003a18:	08200513          	li	a0,130
20003a1c:	d65fe0ef          	jal	20002780 <lcd_write_data>
20003a20:	0c000513          	li	a0,192
20003a24:	cc1fe0ef          	jal	200026e4 <lcd_write_register>
20003a28:	4545                	li	a0,17
20003a2a:	d57fe0ef          	jal	20002780 <lcd_write_data>
20003a2e:	4525                	li	a0,9
20003a30:	d51fe0ef          	jal	20002780 <lcd_write_data>
20003a34:	0c100513          	li	a0,193
20003a38:	cadfe0ef          	jal	200026e4 <lcd_write_register>
20003a3c:	04400513          	li	a0,68
20003a40:	d41fe0ef          	jal	20002780 <lcd_write_data>
20003a44:	0c500513          	li	a0,197
20003a48:	c9dfe0ef          	jal	200026e4 <lcd_write_register>
20003a4c:	4501                	li	a0,0
20003a4e:	d33fe0ef          	jal	20002780 <lcd_write_data>
20003a52:	4529                	li	a0,10
20003a54:	d2dfe0ef          	jal	20002780 <lcd_write_data>
20003a58:	08000513          	li	a0,128
20003a5c:	d25fe0ef          	jal	20002780 <lcd_write_data>
20003a60:	0b100513          	li	a0,177
20003a64:	c81fe0ef          	jal	200026e4 <lcd_write_register>
20003a68:	0b000513          	li	a0,176
20003a6c:	d15fe0ef          	jal	20002780 <lcd_write_data>
20003a70:	4545                	li	a0,17
20003a72:	d0ffe0ef          	jal	20002780 <lcd_write_data>
20003a76:	0b400513          	li	a0,180
20003a7a:	c6bfe0ef          	jal	200026e4 <lcd_write_register>
20003a7e:	4509                	li	a0,2
20003a80:	d01fe0ef          	jal	20002780 <lcd_write_data>
20003a84:	0b600513          	li	a0,182
20003a88:	c5dfe0ef          	jal	200026e4 <lcd_write_register>
20003a8c:	4509                	li	a0,2
20003a8e:	cf3fe0ef          	jal	20002780 <lcd_write_data>
20003a92:	4509                	li	a0,2
20003a94:	cedfe0ef          	jal	20002780 <lcd_write_data>
20003a98:	03b00513          	li	a0,59
20003a9c:	ce5fe0ef          	jal	20002780 <lcd_write_data>
20003aa0:	0b700513          	li	a0,183
20003aa4:	c41fe0ef          	jal	200026e4 <lcd_write_register>
20003aa8:	0c600513          	li	a0,198
20003aac:	cd5fe0ef          	jal	20002780 <lcd_write_data>
20003ab0:	0be00513          	li	a0,190
20003ab4:	c31fe0ef          	jal	200026e4 <lcd_write_register>
20003ab8:	4501                	li	a0,0
20003aba:	cc7fe0ef          	jal	20002780 <lcd_write_data>
20003abe:	4511                	li	a0,4
20003ac0:	cc1fe0ef          	jal	20002780 <lcd_write_data>
20003ac4:	0e900513          	li	a0,233
20003ac8:	c1dfe0ef          	jal	200026e4 <lcd_write_register>
20003acc:	4501                	li	a0,0
20003ace:	cb3fe0ef          	jal	20002780 <lcd_write_data>
20003ad2:	03600513          	li	a0,54
20003ad6:	c0ffe0ef          	jal	200026e4 <lcd_write_register>
20003ada:	04800513          	li	a0,72
20003ade:	ca3fe0ef          	jal	20002780 <lcd_write_data>
20003ae2:	03a00513          	li	a0,58
20003ae6:	bfffe0ef          	jal	200026e4 <lcd_write_register>
20003aea:	4519                	li	a0,6
20003aec:	c95fe0ef          	jal	20002780 <lcd_write_data>
20003af0:	0e000513          	li	a0,224
20003af4:	bf1fe0ef          	jal	200026e4 <lcd_write_register>
20003af8:	4501                	li	a0,0
20003afa:	c87fe0ef          	jal	20002780 <lcd_write_data>
20003afe:	451d                	li	a0,7
20003b00:	c81fe0ef          	jal	20002780 <lcd_write_data>
20003b04:	4541                	li	a0,16
20003b06:	c7bfe0ef          	jal	20002780 <lcd_write_data>
20003b0a:	4525                	li	a0,9
20003b0c:	c75fe0ef          	jal	20002780 <lcd_write_data>
20003b10:	455d                	li	a0,23
20003b12:	c6ffe0ef          	jal	20002780 <lcd_write_data>
20003b16:	452d                	li	a0,11
20003b18:	c69fe0ef          	jal	20002780 <lcd_write_data>
20003b1c:	04100513          	li	a0,65
20003b20:	c61fe0ef          	jal	20002780 <lcd_write_data>
20003b24:	08900513          	li	a0,137
20003b28:	c59fe0ef          	jal	20002780 <lcd_write_data>
20003b2c:	04b00513          	li	a0,75
20003b30:	c51fe0ef          	jal	20002780 <lcd_write_data>
20003b34:	4529                	li	a0,10
20003b36:	c4bfe0ef          	jal	20002780 <lcd_write_data>
20003b3a:	4531                	li	a0,12
20003b3c:	c45fe0ef          	jal	20002780 <lcd_write_data>
20003b40:	4539                	li	a0,14
20003b42:	c3ffe0ef          	jal	20002780 <lcd_write_data>
20003b46:	4561                	li	a0,24
20003b48:	c39fe0ef          	jal	20002780 <lcd_write_data>
20003b4c:	456d                	li	a0,27
20003b4e:	c33fe0ef          	jal	20002780 <lcd_write_data>
20003b52:	453d                	li	a0,15
20003b54:	c2dfe0ef          	jal	20002780 <lcd_write_data>
20003b58:	0e100513          	li	a0,225
20003b5c:	b89fe0ef          	jal	200026e4 <lcd_write_register>
20003b60:	4501                	li	a0,0
20003b62:	c1ffe0ef          	jal	20002780 <lcd_write_data>
20003b66:	455d                	li	a0,23
20003b68:	c19fe0ef          	jal	20002780 <lcd_write_data>
20003b6c:	4569                	li	a0,26
20003b6e:	c13fe0ef          	jal	20002780 <lcd_write_data>
20003b72:	4511                	li	a0,4
20003b74:	c0dfe0ef          	jal	20002780 <lcd_write_data>
20003b78:	4539                	li	a0,14
20003b7a:	c07fe0ef          	jal	20002780 <lcd_write_data>
20003b7e:	4519                	li	a0,6
20003b80:	c01fe0ef          	jal	20002780 <lcd_write_data>
20003b84:	02f00513          	li	a0,47
20003b88:	bf9fe0ef          	jal	20002780 <lcd_write_data>
20003b8c:	04500513          	li	a0,69
20003b90:	bf1fe0ef          	jal	20002780 <lcd_write_data>
20003b94:	04300513          	li	a0,67
20003b98:	be9fe0ef          	jal	20002780 <lcd_write_data>
20003b9c:	4509                	li	a0,2
20003b9e:	be3fe0ef          	jal	20002780 <lcd_write_data>
20003ba2:	4529                	li	a0,10
20003ba4:	bddfe0ef          	jal	20002780 <lcd_write_data>
20003ba8:	4525                	li	a0,9
20003baa:	bd7fe0ef          	jal	20002780 <lcd_write_data>
20003bae:	03200513          	li	a0,50
20003bb2:	bcffe0ef          	jal	20002780 <lcd_write_data>
20003bb6:	03600513          	li	a0,54
20003bba:	bc7fe0ef          	jal	20002780 <lcd_write_data>
20003bbe:	453d                	li	a0,15
20003bc0:	bc1fe0ef          	jal	20002780 <lcd_write_data>
20003bc4:	4545                	li	a0,17
20003bc6:	b1ffe0ef          	jal	200026e4 <lcd_write_register>
20003bca:	0c800513          	li	a0,200
20003bce:	82afe0ef          	jal	20001bf8 <_delay_ms>
20003bd2:	02900513          	li	a0,41
20003bd6:	b0ffe0ef          	jal	200026e4 <lcd_write_register>
20003bda:	4505                	li	a0,1
20003bdc:	f91fe0ef          	jal	20002b6c <_tft_lcd_direction>
20003be0:	ac01                	j	20003df0 <_tft_init+0x836>
20003be2:	fec42783          	lw	a5,-20(s0)
20003be6:	8b91                	andi	a5,a5,4
20003be8:	20078463          	beqz	a5,20003df0 <_tft_init+0x836>
20003bec:	0f100513          	li	a0,241
20003bf0:	af5fe0ef          	jal	200026e4 <lcd_write_register>
20003bf4:	03600513          	li	a0,54
20003bf8:	b89fe0ef          	jal	20002780 <lcd_write_data>
20003bfc:	4511                	li	a0,4
20003bfe:	b83fe0ef          	jal	20002780 <lcd_write_data>
20003c02:	4501                	li	a0,0
20003c04:	b7dfe0ef          	jal	20002780 <lcd_write_data>
20003c08:	03c00513          	li	a0,60
20003c0c:	b75fe0ef          	jal	20002780 <lcd_write_data>
20003c10:	453d                	li	a0,15
20003c12:	b6ffe0ef          	jal	20002780 <lcd_write_data>
20003c16:	08f00513          	li	a0,143
20003c1a:	b67fe0ef          	jal	20002780 <lcd_write_data>
20003c1e:	0f200513          	li	a0,242
20003c22:	ac3fe0ef          	jal	200026e4 <lcd_write_register>
20003c26:	4561                	li	a0,24
20003c28:	b59fe0ef          	jal	20002780 <lcd_write_data>
20003c2c:	0a300513          	li	a0,163
20003c30:	b51fe0ef          	jal	20002780 <lcd_write_data>
20003c34:	4549                	li	a0,18
20003c36:	b4bfe0ef          	jal	20002780 <lcd_write_data>
20003c3a:	4509                	li	a0,2
20003c3c:	b45fe0ef          	jal	20002780 <lcd_write_data>
20003c40:	0b200513          	li	a0,178
20003c44:	b3dfe0ef          	jal	20002780 <lcd_write_data>
20003c48:	4549                	li	a0,18
20003c4a:	b37fe0ef          	jal	20002780 <lcd_write_data>
20003c4e:	0ff00513          	li	a0,255
20003c52:	b2ffe0ef          	jal	20002780 <lcd_write_data>
20003c56:	4541                	li	a0,16
20003c58:	b29fe0ef          	jal	20002780 <lcd_write_data>
20003c5c:	4501                	li	a0,0
20003c5e:	b23fe0ef          	jal	20002780 <lcd_write_data>
20003c62:	0f800513          	li	a0,248
20003c66:	a7ffe0ef          	jal	200026e4 <lcd_write_register>
20003c6a:	02100513          	li	a0,33
20003c6e:	b13fe0ef          	jal	20002780 <lcd_write_data>
20003c72:	4511                	li	a0,4
20003c74:	b0dfe0ef          	jal	20002780 <lcd_write_data>
20003c78:	0f900513          	li	a0,249
20003c7c:	a69fe0ef          	jal	200026e4 <lcd_write_register>
20003c80:	4501                	li	a0,0
20003c82:	afffe0ef          	jal	20002780 <lcd_write_data>
20003c86:	4521                	li	a0,8
20003c88:	af9fe0ef          	jal	20002780 <lcd_write_data>
20003c8c:	03600513          	li	a0,54
20003c90:	a55fe0ef          	jal	200026e4 <lcd_write_register>
20003c94:	4521                	li	a0,8
20003c96:	aebfe0ef          	jal	20002780 <lcd_write_data>
20003c9a:	0b400513          	li	a0,180
20003c9e:	a47fe0ef          	jal	200026e4 <lcd_write_register>
20003ca2:	4501                	li	a0,0
20003ca4:	addfe0ef          	jal	20002780 <lcd_write_data>
20003ca8:	0c100513          	li	a0,193
20003cac:	a39fe0ef          	jal	200026e4 <lcd_write_register>
20003cb0:	04700513          	li	a0,71
20003cb4:	acdfe0ef          	jal	20002780 <lcd_write_data>
20003cb8:	0c500513          	li	a0,197
20003cbc:	a29fe0ef          	jal	200026e4 <lcd_write_register>
20003cc0:	4501                	li	a0,0
20003cc2:	abffe0ef          	jal	20002780 <lcd_write_data>
20003cc6:	0af00513          	li	a0,175
20003cca:	ab7fe0ef          	jal	20002780 <lcd_write_data>
20003cce:	08000513          	li	a0,128
20003cd2:	aaffe0ef          	jal	20002780 <lcd_write_data>
20003cd6:	4501                	li	a0,0
20003cd8:	aa9fe0ef          	jal	20002780 <lcd_write_data>
20003cdc:	0e000513          	li	a0,224
20003ce0:	a05fe0ef          	jal	200026e4 <lcd_write_register>
20003ce4:	453d                	li	a0,15
20003ce6:	a9bfe0ef          	jal	20002780 <lcd_write_data>
20003cea:	457d                	li	a0,31
20003cec:	a95fe0ef          	jal	20002780 <lcd_write_data>
20003cf0:	4571                	li	a0,28
20003cf2:	a8ffe0ef          	jal	20002780 <lcd_write_data>
20003cf6:	4531                	li	a0,12
20003cf8:	a89fe0ef          	jal	20002780 <lcd_write_data>
20003cfc:	453d                	li	a0,15
20003cfe:	a83fe0ef          	jal	20002780 <lcd_write_data>
20003d02:	4521                	li	a0,8
20003d04:	a7dfe0ef          	jal	20002780 <lcd_write_data>
20003d08:	04800513          	li	a0,72
20003d0c:	a75fe0ef          	jal	20002780 <lcd_write_data>
20003d10:	09800513          	li	a0,152
20003d14:	a6dfe0ef          	jal	20002780 <lcd_write_data>
20003d18:	03700513          	li	a0,55
20003d1c:	a65fe0ef          	jal	20002780 <lcd_write_data>
20003d20:	4529                	li	a0,10
20003d22:	a5ffe0ef          	jal	20002780 <lcd_write_data>
20003d26:	454d                	li	a0,19
20003d28:	a59fe0ef          	jal	20002780 <lcd_write_data>
20003d2c:	4511                	li	a0,4
20003d2e:	a53fe0ef          	jal	20002780 <lcd_write_data>
20003d32:	4545                	li	a0,17
20003d34:	a4dfe0ef          	jal	20002780 <lcd_write_data>
20003d38:	4535                	li	a0,13
20003d3a:	a47fe0ef          	jal	20002780 <lcd_write_data>
20003d3e:	4501                	li	a0,0
20003d40:	a41fe0ef          	jal	20002780 <lcd_write_data>
20003d44:	0e100513          	li	a0,225
20003d48:	99dfe0ef          	jal	200026e4 <lcd_write_register>
20003d4c:	453d                	li	a0,15
20003d4e:	a33fe0ef          	jal	20002780 <lcd_write_data>
20003d52:	03200513          	li	a0,50
20003d56:	a2bfe0ef          	jal	20002780 <lcd_write_data>
20003d5a:	02e00513          	li	a0,46
20003d5e:	a23fe0ef          	jal	20002780 <lcd_write_data>
20003d62:	452d                	li	a0,11
20003d64:	a1dfe0ef          	jal	20002780 <lcd_write_data>
20003d68:	4535                	li	a0,13
20003d6a:	a17fe0ef          	jal	20002780 <lcd_write_data>
20003d6e:	4515                	li	a0,5
20003d70:	a11fe0ef          	jal	20002780 <lcd_write_data>
20003d74:	04700513          	li	a0,71
20003d78:	a09fe0ef          	jal	20002780 <lcd_write_data>
20003d7c:	07500513          	li	a0,117
20003d80:	a01fe0ef          	jal	20002780 <lcd_write_data>
20003d84:	03700513          	li	a0,55
20003d88:	9f9fe0ef          	jal	20002780 <lcd_write_data>
20003d8c:	4519                	li	a0,6
20003d8e:	9f3fe0ef          	jal	20002780 <lcd_write_data>
20003d92:	4541                	li	a0,16
20003d94:	9edfe0ef          	jal	20002780 <lcd_write_data>
20003d98:	450d                	li	a0,3
20003d9a:	9e7fe0ef          	jal	20002780 <lcd_write_data>
20003d9e:	02400513          	li	a0,36
20003da2:	9dffe0ef          	jal	20002780 <lcd_write_data>
20003da6:	02000513          	li	a0,32
20003daa:	9d7fe0ef          	jal	20002780 <lcd_write_data>
20003dae:	4501                	li	a0,0
20003db0:	9d1fe0ef          	jal	20002780 <lcd_write_data>
20003db4:	03a00513          	li	a0,58
20003db8:	92dfe0ef          	jal	200026e4 <lcd_write_register>
20003dbc:	06600513          	li	a0,102
20003dc0:	9c1fe0ef          	jal	20002780 <lcd_write_data>
20003dc4:	4545                	li	a0,17
20003dc6:	91ffe0ef          	jal	200026e4 <lcd_write_register>
20003dca:	03600513          	li	a0,54
20003dce:	917fe0ef          	jal	200026e4 <lcd_write_register>
20003dd2:	02800513          	li	a0,40
20003dd6:	9abfe0ef          	jal	20002780 <lcd_write_data>
20003dda:	07800513          	li	a0,120
20003dde:	e1bfd0ef          	jal	20001bf8 <_delay_ms>
20003de2:	02900513          	li	a0,41
20003de6:	8fffe0ef          	jal	200026e4 <lcd_write_register>
20003dea:	450d                	li	a0,3
20003dec:	d81fe0ef          	jal	20002b6c <_tft_lcd_direction>
20003df0:	200077b7          	lui	a5,0x20007
20003df4:	dd478793          	addi	a5,a5,-556 # 20006dd4 <lcddev>
20003df8:	0007d783          	lhu	a5,0(a5)
20003dfc:	17fd                	addi	a5,a5,-1
20003dfe:	01079713          	slli	a4,a5,0x10
20003e02:	8341                	srli	a4,a4,0x10
20003e04:	200077b7          	lui	a5,0x20007
20003e08:	dd478793          	addi	a5,a5,-556 # 20006dd4 <lcddev>
20003e0c:	0027d783          	lhu	a5,2(a5)
20003e10:	17fd                	addi	a5,a5,-1
20003e12:	07c2                	slli	a5,a5,0x10
20003e14:	83c1                	srli	a5,a5,0x10
20003e16:	86be                	mv	a3,a5
20003e18:	863a                	mv	a2,a4
20003e1a:	4581                	li	a1,0
20003e1c:	4501                	li	a0,0
20003e1e:	b21fe0ef          	jal	2000293e <_tft_lcd_setwindow>
20003e22:	67c1                	lui	a5,0x10
20003e24:	fe078513          	addi	a0,a5,-32 # ffe0 <_start-0x1fff0020>
20003e28:	bfffe0ef          	jal	20002a26 <tft_fill_colour>
20003e2c:	400117b7          	lui	a5,0x40011
20003e30:	c0c78793          	addi	a5,a5,-1012 # 40010c0c <__stack_top+0x200090d0>
20003e34:	0007d783          	lhu	a5,0(a5)
20003e38:	01079693          	slli	a3,a5,0x10
20003e3c:	82c1                	srli	a3,a3,0x10
20003e3e:	400117b7          	lui	a5,0x40011
20003e42:	c0c78793          	addi	a5,a5,-1012 # 40010c0c <__stack_top+0x200090d0>
20003e46:	6709                	lui	a4,0x2
20003e48:	8f55                	or	a4,a4,a3
20003e4a:	0742                	slli	a4,a4,0x10
20003e4c:	8341                	srli	a4,a4,0x10
20003e4e:	00e79023          	sh	a4,0(a5)
20003e52:	4785                	li	a5,1
20003e54:	853e                	mv	a0,a5
20003e56:	40f2                	lw	ra,28(sp)
20003e58:	4462                	lw	s0,24(sp)
20003e5a:	6105                	addi	sp,sp,32
20003e5c:	8082                	ret
	...

20003e60 <__udivdi3>:
20003e60:	00060813          	mv	a6,a2
20003e64:	00050793          	mv	a5,a0
20003e68:	00058893          	mv	a7,a1
20003e6c:	0c069c63          	bnez	a3,20003f44 <__udivdi3+0xe4>
20003e70:	22c5fa63          	bgeu	a1,a2,200040a4 <__udivdi3+0x244>
20003e74:	00010737          	lui	a4,0x10
20003e78:	36e66863          	bltu	a2,a4,200041e8 <__udivdi3+0x388>
20003e7c:	01000737          	lui	a4,0x1000
20003e80:	01800313          	li	t1,24
20003e84:	00e67463          	bgeu	a2,a4,20003e8c <__udivdi3+0x2c>
20003e88:	01000313          	li	t1,16
20003e8c:	20007737          	lui	a4,0x20007
20003e90:	006656b3          	srl	a3,a2,t1
20003e94:	b8c70713          	addi	a4,a4,-1140 # 20006b8c <__clz_tab>
20003e98:	00d70733          	add	a4,a4,a3
20003e9c:	00074703          	lbu	a4,0(a4)
20003ea0:	02000693          	li	a3,32
20003ea4:	00670733          	add	a4,a4,t1
20003ea8:	00d70e63          	beq	a4,a3,20003ec4 <__udivdi3+0x64>
20003eac:	40e686b3          	sub	a3,a3,a4
20003eb0:	00d598b3          	sll	a7,a1,a3
20003eb4:	00e55733          	srl	a4,a0,a4
20003eb8:	00d61833          	sll	a6,a2,a3
20003ebc:	00d517b3          	sll	a5,a0,a3
20003ec0:	011768b3          	or	a7,a4,a7
20003ec4:	01085613          	srli	a2,a6,0x10
20003ec8:	02c8d533          	divu	a0,a7,a2
20003ecc:	01081693          	slli	a3,a6,0x10
20003ed0:	0106d693          	srli	a3,a3,0x10
20003ed4:	0107d713          	srli	a4,a5,0x10
20003ed8:	02c8f8b3          	remu	a7,a7,a2
20003edc:	02a685b3          	mul	a1,a3,a0
20003ee0:	01089893          	slli	a7,a7,0x10
20003ee4:	01176733          	or	a4,a4,a7
20003ee8:	00b77c63          	bgeu	a4,a1,20003f00 <__udivdi3+0xa0>
20003eec:	00e808b3          	add	a7,a6,a4
20003ef0:	00088713          	mv	a4,a7
20003ef4:	00b8f463          	bgeu	a7,a1,20003efc <__udivdi3+0x9c>
20003ef8:	3908f463          	bgeu	a7,a6,20004280 <__udivdi3+0x420>
20003efc:	fff50513          	addi	a0,a0,-1 # 40012fff <__stack_top+0x2000b4c3>
20003f00:	40b70733          	sub	a4,a4,a1
20003f04:	02c755b3          	divu	a1,a4,a2
20003f08:	01079793          	slli	a5,a5,0x10
20003f0c:	0107d793          	srli	a5,a5,0x10
20003f10:	02c77733          	remu	a4,a4,a2
20003f14:	02b686b3          	mul	a3,a3,a1
20003f18:	01071713          	slli	a4,a4,0x10
20003f1c:	00e7e7b3          	or	a5,a5,a4
20003f20:	00d7fa63          	bgeu	a5,a3,20003f34 <__udivdi3+0xd4>
20003f24:	00f807b3          	add	a5,a6,a5
20003f28:	00d7f463          	bgeu	a5,a3,20003f30 <__udivdi3+0xd0>
20003f2c:	3507f663          	bgeu	a5,a6,20004278 <__udivdi3+0x418>
20003f30:	fff58593          	addi	a1,a1,-1
20003f34:	01051513          	slli	a0,a0,0x10
20003f38:	00b56533          	or	a0,a0,a1
20003f3c:	00000593          	li	a1,0
20003f40:	00008067          	ret
20003f44:	00d5f863          	bgeu	a1,a3,20003f54 <__udivdi3+0xf4>
20003f48:	00000593          	li	a1,0
20003f4c:	00000513          	li	a0,0
20003f50:	00008067          	ret
20003f54:	000107b7          	lui	a5,0x10
20003f58:	2af6e663          	bltu	a3,a5,20004204 <__udivdi3+0x3a4>
20003f5c:	010007b7          	lui	a5,0x1000
20003f60:	01800713          	li	a4,24
20003f64:	00f6f463          	bgeu	a3,a5,20003f6c <__udivdi3+0x10c>
20003f68:	01000713          	li	a4,16
20003f6c:	200077b7          	lui	a5,0x20007
20003f70:	00e6d833          	srl	a6,a3,a4
20003f74:	b8c78793          	addi	a5,a5,-1140 # 20006b8c <__clz_tab>
20003f78:	010787b3          	add	a5,a5,a6
20003f7c:	0007c783          	lbu	a5,0(a5)
20003f80:	02000813          	li	a6,32
20003f84:	00e787b3          	add	a5,a5,a4
20003f88:	29078663          	beq	a5,a6,20004214 <__udivdi3+0x3b4>
20003f8c:	40f80833          	sub	a6,a6,a5
20003f90:	00f658b3          	srl	a7,a2,a5
20003f94:	010696b3          	sll	a3,a3,a6
20003f98:	00d8e8b3          	or	a7,a7,a3
20003f9c:	00f5d333          	srl	t1,a1,a5
20003fa0:	0108de93          	srli	t4,a7,0x10
20003fa4:	03d356b3          	divu	a3,t1,t4
20003fa8:	01089e13          	slli	t3,a7,0x10
20003fac:	010595b3          	sll	a1,a1,a6
20003fb0:	010e5e13          	srli	t3,t3,0x10
20003fb4:	00f557b3          	srl	a5,a0,a5
20003fb8:	00b7e7b3          	or	a5,a5,a1
20003fbc:	0107d713          	srli	a4,a5,0x10
20003fc0:	01061633          	sll	a2,a2,a6
20003fc4:	03d37333          	remu	t1,t1,t4
20003fc8:	02de05b3          	mul	a1,t3,a3
20003fcc:	01031313          	slli	t1,t1,0x10
20003fd0:	00676733          	or	a4,a4,t1
20003fd4:	00b77c63          	bgeu	a4,a1,20003fec <__udivdi3+0x18c>
20003fd8:	00e88333          	add	t1,a7,a4
20003fdc:	00030713          	mv	a4,t1
20003fe0:	00b37463          	bgeu	t1,a1,20003fe8 <__udivdi3+0x188>
20003fe4:	2d137c63          	bgeu	t1,a7,200042bc <__udivdi3+0x45c>
20003fe8:	fff68693          	addi	a3,a3,-1
20003fec:	40b70733          	sub	a4,a4,a1
20003ff0:	03d75333          	divu	t1,a4,t4
20003ff4:	01079793          	slli	a5,a5,0x10
20003ff8:	0107d793          	srli	a5,a5,0x10
20003ffc:	03d77733          	remu	a4,a4,t4
20004000:	026e05b3          	mul	a1,t3,t1
20004004:	01071713          	slli	a4,a4,0x10
20004008:	00e7e7b3          	or	a5,a5,a4
2000400c:	00b7fc63          	bgeu	a5,a1,20004024 <__udivdi3+0x1c4>
20004010:	00f88733          	add	a4,a7,a5
20004014:	00070793          	mv	a5,a4
20004018:	00b77463          	bgeu	a4,a1,20004020 <__udivdi3+0x1c0>
2000401c:	29177463          	bgeu	a4,a7,200042a4 <__udivdi3+0x444>
20004020:	fff30313          	addi	t1,t1,-1
20004024:	01069693          	slli	a3,a3,0x10
20004028:	0066e6b3          	or	a3,a3,t1
2000402c:	01061893          	slli	a7,a2,0x10
20004030:	01069713          	slli	a4,a3,0x10
20004034:	01075713          	srli	a4,a4,0x10
20004038:	0108d893          	srli	a7,a7,0x10
2000403c:	01065613          	srli	a2,a2,0x10
20004040:	0106d313          	srli	t1,a3,0x10
20004044:	03170e33          	mul	t3,a4,a7
20004048:	40b787b3          	sub	a5,a5,a1
2000404c:	031308b3          	mul	a7,t1,a7
20004050:	02c705b3          	mul	a1,a4,a2
20004054:	010e5713          	srli	a4,t3,0x10
20004058:	011585b3          	add	a1,a1,a7
2000405c:	00b70733          	add	a4,a4,a1
20004060:	02c30333          	mul	t1,t1,a2
20004064:	01177663          	bgeu	a4,a7,20004070 <__udivdi3+0x210>
20004068:	00010637          	lui	a2,0x10
2000406c:	00c30333          	add	t1,t1,a2
20004070:	01075613          	srli	a2,a4,0x10
20004074:	00660633          	add	a2,a2,t1
20004078:	02c7e063          	bltu	a5,a2,20004098 <__udivdi3+0x238>
2000407c:	010e1e13          	slli	t3,t3,0x10
20004080:	010e5e13          	srli	t3,t3,0x10
20004084:	01071713          	slli	a4,a4,0x10
20004088:	01051533          	sll	a0,a0,a6
2000408c:	01c70733          	add	a4,a4,t3
20004090:	1ee57e63          	bgeu	a0,a4,2000428c <__udivdi3+0x42c>
20004094:	1ec79c63          	bne	a5,a2,2000428c <__udivdi3+0x42c>
20004098:	fff68513          	addi	a0,a3,-1
2000409c:	00000593          	li	a1,0
200040a0:	00008067          	ret
200040a4:	14060a63          	beqz	a2,200041f8 <__udivdi3+0x398>
200040a8:	00010737          	lui	a4,0x10
200040ac:	18e67c63          	bgeu	a2,a4,20004244 <__udivdi3+0x3e4>
200040b0:	10063893          	sltiu	a7,a2,256
200040b4:	0018b893          	seqz	a7,a7
200040b8:	00389893          	slli	a7,a7,0x3
200040bc:	011656b3          	srl	a3,a2,a7
200040c0:	20007737          	lui	a4,0x20007
200040c4:	b8c70713          	addi	a4,a4,-1140 # 20006b8c <__clz_tab>
200040c8:	00d70733          	add	a4,a4,a3
200040cc:	00074703          	lbu	a4,0(a4)
200040d0:	02000693          	li	a3,32
200040d4:	01170733          	add	a4,a4,a7
200040d8:	14d70a63          	beq	a4,a3,2000422c <__udivdi3+0x3cc>
200040dc:	40e687b3          	sub	a5,a3,a4
200040e0:	00f61833          	sll	a6,a2,a5
200040e4:	00e5d333          	srl	t1,a1,a4
200040e8:	01085893          	srli	a7,a6,0x10
200040ec:	03135e33          	divu	t3,t1,a7
200040f0:	01081613          	slli	a2,a6,0x10
200040f4:	00f595b3          	sll	a1,a1,a5
200040f8:	01065613          	srli	a2,a2,0x10
200040fc:	00e55733          	srl	a4,a0,a4
20004100:	00b76733          	or	a4,a4,a1
20004104:	01075693          	srli	a3,a4,0x10
20004108:	00f517b3          	sll	a5,a0,a5
2000410c:	03137333          	remu	t1,t1,a7
20004110:	03c605b3          	mul	a1,a2,t3
20004114:	01031313          	slli	t1,t1,0x10
20004118:	0066e6b3          	or	a3,a3,t1
2000411c:	00b6fc63          	bgeu	a3,a1,20004134 <__udivdi3+0x2d4>
20004120:	00d80533          	add	a0,a6,a3
20004124:	00050693          	mv	a3,a0
20004128:	00b57463          	bgeu	a0,a1,20004130 <__udivdi3+0x2d0>
2000412c:	17057663          	bgeu	a0,a6,20004298 <__udivdi3+0x438>
20004130:	fffe0e13          	addi	t3,t3,-1
20004134:	40b686b3          	sub	a3,a3,a1
20004138:	0316d533          	divu	a0,a3,a7
2000413c:	01071713          	slli	a4,a4,0x10
20004140:	01075713          	srli	a4,a4,0x10
20004144:	0316f6b3          	remu	a3,a3,a7
20004148:	02a60333          	mul	t1,a2,a0
2000414c:	01069693          	slli	a3,a3,0x10
20004150:	00d76733          	or	a4,a4,a3
20004154:	00677c63          	bgeu	a4,t1,2000416c <__udivdi3+0x30c>
20004158:	00e806b3          	add	a3,a6,a4
2000415c:	00068713          	mv	a4,a3
20004160:	0066f463          	bgeu	a3,t1,20004168 <__udivdi3+0x308>
20004164:	1506f663          	bgeu	a3,a6,200042b0 <__udivdi3+0x450>
20004168:	fff50513          	addi	a0,a0,-1
2000416c:	010e1593          	slli	a1,t3,0x10
20004170:	00a5e5b3          	or	a1,a1,a0
20004174:	40670733          	sub	a4,a4,t1
20004178:	03175533          	divu	a0,a4,a7
2000417c:	0107d693          	srli	a3,a5,0x10
20004180:	03177733          	remu	a4,a4,a7
20004184:	02c50333          	mul	t1,a0,a2
20004188:	01071713          	slli	a4,a4,0x10
2000418c:	00e6e733          	or	a4,a3,a4
20004190:	00677c63          	bgeu	a4,t1,200041a8 <__udivdi3+0x348>
20004194:	00e806b3          	add	a3,a6,a4
20004198:	00068713          	mv	a4,a3
2000419c:	0066f463          	bgeu	a3,t1,200041a4 <__udivdi3+0x344>
200041a0:	0d06f663          	bgeu	a3,a6,2000426c <__udivdi3+0x40c>
200041a4:	fff50513          	addi	a0,a0,-1
200041a8:	40670733          	sub	a4,a4,t1
200041ac:	031756b3          	divu	a3,a4,a7
200041b0:	01079793          	slli	a5,a5,0x10
200041b4:	0107d793          	srli	a5,a5,0x10
200041b8:	03177733          	remu	a4,a4,a7
200041bc:	02c68633          	mul	a2,a3,a2
200041c0:	01071713          	slli	a4,a4,0x10
200041c4:	00e7e7b3          	or	a5,a5,a4
200041c8:	00c7fa63          	bgeu	a5,a2,200041dc <__udivdi3+0x37c>
200041cc:	00f807b3          	add	a5,a6,a5
200041d0:	00c7f463          	bgeu	a5,a2,200041d8 <__udivdi3+0x378>
200041d4:	0907f863          	bgeu	a5,a6,20004264 <__udivdi3+0x404>
200041d8:	fff68693          	addi	a3,a3,-1
200041dc:	01051513          	slli	a0,a0,0x10
200041e0:	00d56533          	or	a0,a0,a3
200041e4:	00008067          	ret
200041e8:	10063313          	sltiu	t1,a2,256
200041ec:	00133313          	seqz	t1,t1
200041f0:	00331313          	slli	t1,t1,0x3
200041f4:	c99ff06f          	j	20003e8c <__udivdi3+0x2c>
200041f8:	00000693          	li	a3,0
200041fc:	00000893          	li	a7,0
20004200:	ec1ff06f          	j	200040c0 <__udivdi3+0x260>
20004204:	1006b713          	sltiu	a4,a3,256
20004208:	00173713          	seqz	a4,a4
2000420c:	00371713          	slli	a4,a4,0x3
20004210:	d5dff06f          	j	20003f6c <__udivdi3+0x10c>
20004214:	00c53633          	sltu	a2,a0,a2
20004218:	00b6b6b3          	sltu	a3,a3,a1
2000421c:	00163613          	seqz	a2,a2
20004220:	00c6e533          	or	a0,a3,a2
20004224:	00000593          	li	a1,0
20004228:	00008067          	ret
2000422c:	40c58733          	sub	a4,a1,a2
20004230:	01065893          	srli	a7,a2,0x10
20004234:	01061613          	slli	a2,a2,0x10
20004238:	01065613          	srli	a2,a2,0x10
2000423c:	00100593          	li	a1,1
20004240:	f39ff06f          	j	20004178 <__udivdi3+0x318>
20004244:	01000737          	lui	a4,0x1000
20004248:	00e67863          	bgeu	a2,a4,20004258 <__udivdi3+0x3f8>
2000424c:	01065693          	srli	a3,a2,0x10
20004250:	01000893          	li	a7,16
20004254:	e6dff06f          	j	200040c0 <__udivdi3+0x260>
20004258:	01865693          	srli	a3,a2,0x18
2000425c:	01800893          	li	a7,24
20004260:	e61ff06f          	j	200040c0 <__udivdi3+0x260>
20004264:	ffe68693          	addi	a3,a3,-2
20004268:	f75ff06f          	j	200041dc <__udivdi3+0x37c>
2000426c:	ffe50513          	addi	a0,a0,-2
20004270:	01068733          	add	a4,a3,a6
20004274:	f35ff06f          	j	200041a8 <__udivdi3+0x348>
20004278:	ffe58593          	addi	a1,a1,-2
2000427c:	cb9ff06f          	j	20003f34 <__udivdi3+0xd4>
20004280:	ffe50513          	addi	a0,a0,-2
20004284:	01088733          	add	a4,a7,a6
20004288:	c79ff06f          	j	20003f00 <__udivdi3+0xa0>
2000428c:	00068513          	mv	a0,a3
20004290:	00000593          	li	a1,0
20004294:	00008067          	ret
20004298:	ffee0e13          	addi	t3,t3,-2
2000429c:	010506b3          	add	a3,a0,a6
200042a0:	e95ff06f          	j	20004134 <__udivdi3+0x2d4>
200042a4:	ffe30313          	addi	t1,t1,-2
200042a8:	011707b3          	add	a5,a4,a7
200042ac:	d79ff06f          	j	20004024 <__udivdi3+0x1c4>
200042b0:	ffe50513          	addi	a0,a0,-2
200042b4:	01068733          	add	a4,a3,a6
200042b8:	eb5ff06f          	j	2000416c <__udivdi3+0x30c>
200042bc:	ffe68693          	addi	a3,a3,-2
200042c0:	01130733          	add	a4,t1,a7
200042c4:	d29ff06f          	j	20003fec <__udivdi3+0x18c>

200042c8 <__umoddi3>:
200042c8:	00060813          	mv	a6,a2
200042cc:	00050893          	mv	a7,a0
200042d0:	00058313          	mv	t1,a1
200042d4:	00058713          	mv	a4,a1
200042d8:	0e069a63          	bnez	a3,200043cc <__umoddi3+0x104>
200042dc:	26c5fe63          	bgeu	a1,a2,20004558 <__umoddi3+0x290>
200042e0:	000107b7          	lui	a5,0x10
200042e4:	3ef66463          	bltu	a2,a5,200046cc <__umoddi3+0x404>
200042e8:	010007b7          	lui	a5,0x1000
200042ec:	01800693          	li	a3,24
200042f0:	00f67463          	bgeu	a2,a5,200042f8 <__umoddi3+0x30>
200042f4:	01000693          	li	a3,16
200042f8:	200077b7          	lui	a5,0x20007
200042fc:	00d65333          	srl	t1,a2,a3
20004300:	b8c78793          	addi	a5,a5,-1140 # 20006b8c <__clz_tab>
20004304:	006787b3          	add	a5,a5,t1
20004308:	0007c783          	lbu	a5,0(a5)
2000430c:	02000313          	li	t1,32
20004310:	00d787b3          	add	a5,a5,a3
20004314:	40f306b3          	sub	a3,t1,a5
20004318:	00678c63          	beq	a5,t1,20004330 <__umoddi3+0x68>
2000431c:	00d59733          	sll	a4,a1,a3
20004320:	00f557b3          	srl	a5,a0,a5
20004324:	00e7e733          	or	a4,a5,a4
20004328:	00d61833          	sll	a6,a2,a3
2000432c:	00d518b3          	sll	a7,a0,a3
20004330:	01085593          	srli	a1,a6,0x10
20004334:	02b75633          	divu	a2,a4,a1
20004338:	01081313          	slli	t1,a6,0x10
2000433c:	01035313          	srli	t1,t1,0x10
20004340:	0108d793          	srli	a5,a7,0x10
20004344:	02b77733          	remu	a4,a4,a1
20004348:	02660633          	mul	a2,a2,t1
2000434c:	01071713          	slli	a4,a4,0x10
20004350:	00e7e7b3          	or	a5,a5,a4
20004354:	02c7f263          	bgeu	a5,a2,20004378 <__umoddi3+0xb0>
20004358:	00f807b3          	add	a5,a6,a5
2000435c:	0107b533          	sltu	a0,a5,a6
20004360:	00c7b733          	sltu	a4,a5,a2
20004364:	00153513          	seqz	a0,a0
20004368:	00a77733          	and	a4,a4,a0
2000436c:	40e00733          	neg	a4,a4
20004370:	01077733          	and	a4,a4,a6
20004374:	00f707b3          	add	a5,a4,a5
20004378:	40c787b3          	sub	a5,a5,a2
2000437c:	02b7d733          	divu	a4,a5,a1
20004380:	01089513          	slli	a0,a7,0x10
20004384:	01055513          	srli	a0,a0,0x10
20004388:	02b7f7b3          	remu	a5,a5,a1
2000438c:	02670733          	mul	a4,a4,t1
20004390:	01079793          	slli	a5,a5,0x10
20004394:	00f56533          	or	a0,a0,a5
20004398:	02e57263          	bgeu	a0,a4,200043bc <__umoddi3+0xf4>
2000439c:	00a80533          	add	a0,a6,a0
200043a0:	01053633          	sltu	a2,a0,a6
200043a4:	00e537b3          	sltu	a5,a0,a4
200043a8:	00163613          	seqz	a2,a2
200043ac:	00c7f7b3          	and	a5,a5,a2
200043b0:	40f007b3          	neg	a5,a5
200043b4:	0107f7b3          	and	a5,a5,a6
200043b8:	00a78533          	add	a0,a5,a0
200043bc:	40e50533          	sub	a0,a0,a4
200043c0:	00d55533          	srl	a0,a0,a3
200043c4:	00000593          	li	a1,0
200043c8:	00008067          	ret
200043cc:	00050e13          	mv	t3,a0
200043d0:	00d5f463          	bgeu	a1,a3,200043d8 <__umoddi3+0x110>
200043d4:	00008067          	ret
200043d8:	000107b7          	lui	a5,0x10
200043dc:	30f6e663          	bltu	a3,a5,200046e8 <__umoddi3+0x420>
200043e0:	010007b7          	lui	a5,0x1000
200043e4:	01800713          	li	a4,24
200043e8:	00f6f463          	bgeu	a3,a5,200043f0 <__umoddi3+0x128>
200043ec:	01000713          	li	a4,16
200043f0:	200077b7          	lui	a5,0x20007
200043f4:	00e6d833          	srl	a6,a3,a4
200043f8:	b8c78793          	addi	a5,a5,-1140 # 20006b8c <__clz_tab>
200043fc:	010787b3          	add	a5,a5,a6
20004400:	0007c883          	lbu	a7,0(a5)
20004404:	02000813          	li	a6,32
20004408:	00e888b3          	add	a7,a7,a4
2000440c:	2f088663          	beq	a7,a6,200046f8 <__umoddi3+0x430>
20004410:	41180833          	sub	a6,a6,a7
20004414:	010696b3          	sll	a3,a3,a6
20004418:	01165333          	srl	t1,a2,a7
2000441c:	00d36333          	or	t1,t1,a3
20004420:	0115deb3          	srl	t4,a1,a7
20004424:	01035f93          	srli	t6,t1,0x10
20004428:	03fed7b3          	divu	a5,t4,t6
2000442c:	01031f13          	slli	t5,t1,0x10
20004430:	010595b3          	sll	a1,a1,a6
20004434:	010f5f13          	srli	t5,t5,0x10
20004438:	011556b3          	srl	a3,a0,a7
2000443c:	00b6e6b3          	or	a3,a3,a1
20004440:	0106d713          	srli	a4,a3,0x10
20004444:	01061633          	sll	a2,a2,a6
20004448:	01051e33          	sll	t3,a0,a6
2000444c:	03fefeb3          	remu	t4,t4,t6
20004450:	02ff05b3          	mul	a1,t5,a5
20004454:	010e9e93          	slli	t4,t4,0x10
20004458:	01d76733          	or	a4,a4,t4
2000445c:	00b77c63          	bgeu	a4,a1,20004474 <__umoddi3+0x1ac>
20004460:	00e30533          	add	a0,t1,a4
20004464:	00050713          	mv	a4,a0
20004468:	00b57463          	bgeu	a0,a1,20004470 <__umoddi3+0x1a8>
2000446c:	2e657a63          	bgeu	a0,t1,20004760 <__umoddi3+0x498>
20004470:	fff78793          	addi	a5,a5,-1
20004474:	40b70733          	sub	a4,a4,a1
20004478:	03f75533          	divu	a0,a4,t6
2000447c:	01069693          	slli	a3,a3,0x10
20004480:	0106d693          	srli	a3,a3,0x10
20004484:	03f77733          	remu	a4,a4,t6
20004488:	02af05b3          	mul	a1,t5,a0
2000448c:	01071713          	slli	a4,a4,0x10
20004490:	00e6e733          	or	a4,a3,a4
20004494:	00b77c63          	bgeu	a4,a1,200044ac <__umoddi3+0x1e4>
20004498:	00e306b3          	add	a3,t1,a4
2000449c:	00068713          	mv	a4,a3
200044a0:	00b6f463          	bgeu	a3,a1,200044a8 <__umoddi3+0x1e0>
200044a4:	2a66f863          	bgeu	a3,t1,20004754 <__umoddi3+0x48c>
200044a8:	fff50513          	addi	a0,a0,-1
200044ac:	01079793          	slli	a5,a5,0x10
200044b0:	00a7e7b3          	or	a5,a5,a0
200044b4:	40b70733          	sub	a4,a4,a1
200044b8:	01061693          	slli	a3,a2,0x10
200044bc:	01079593          	slli	a1,a5,0x10
200044c0:	0105d593          	srli	a1,a1,0x10
200044c4:	0106d693          	srli	a3,a3,0x10
200044c8:	0107d793          	srli	a5,a5,0x10
200044cc:	01065f13          	srli	t5,a2,0x10
200044d0:	02d58eb3          	mul	t4,a1,a3
200044d4:	02d786b3          	mul	a3,a5,a3
200044d8:	010ed513          	srli	a0,t4,0x10
200044dc:	03e585b3          	mul	a1,a1,t5
200044e0:	00d585b3          	add	a1,a1,a3
200044e4:	00b50533          	add	a0,a0,a1
200044e8:	03e787b3          	mul	a5,a5,t5
200044ec:	00d57663          	bgeu	a0,a3,200044f8 <__umoddi3+0x230>
200044f0:	000106b7          	lui	a3,0x10
200044f4:	00d787b3          	add	a5,a5,a3
200044f8:	01055693          	srli	a3,a0,0x10
200044fc:	010e9e93          	slli	t4,t4,0x10
20004500:	010ede93          	srli	t4,t4,0x10
20004504:	01051513          	slli	a0,a0,0x10
20004508:	00f687b3          	add	a5,a3,a5
2000450c:	01d50533          	add	a0,a0,t4
20004510:	00f76863          	bltu	a4,a5,20004520 <__umoddi3+0x258>
20004514:	40f705b3          	sub	a1,a4,a5
20004518:	02059063          	bnez	a1,20004538 <__umoddi3+0x270>
2000451c:	00ae7e63          	bgeu	t3,a0,20004538 <__umoddi3+0x270>
20004520:	40c50633          	sub	a2,a0,a2
20004524:	00c53533          	sltu	a0,a0,a2
20004528:	00650533          	add	a0,a0,t1
2000452c:	40a787b3          	sub	a5,a5,a0
20004530:	40f705b3          	sub	a1,a4,a5
20004534:	00060513          	mv	a0,a2
20004538:	40ae0533          	sub	a0,t3,a0
2000453c:	00ae3e33          	sltu	t3,t3,a0
20004540:	41c585b3          	sub	a1,a1,t3
20004544:	011598b3          	sll	a7,a1,a7
20004548:	01055533          	srl	a0,a0,a6
2000454c:	0105d5b3          	srl	a1,a1,a6
20004550:	00a8e533          	or	a0,a7,a0
20004554:	00008067          	ret
20004558:	18060263          	beqz	a2,200046dc <__umoddi3+0x414>
2000455c:	000107b7          	lui	a5,0x10
20004560:	1cf67063          	bgeu	a2,a5,20004720 <__umoddi3+0x458>
20004564:	10063713          	sltiu	a4,a2,256
20004568:	00173713          	seqz	a4,a4
2000456c:	00371713          	slli	a4,a4,0x3
20004570:	00e656b3          	srl	a3,a2,a4
20004574:	200077b7          	lui	a5,0x20007
20004578:	b8c78793          	addi	a5,a5,-1140 # 20006b8c <__clz_tab>
2000457c:	00d787b3          	add	a5,a5,a3
20004580:	0007c783          	lbu	a5,0(a5)
20004584:	02000313          	li	t1,32
20004588:	00e787b3          	add	a5,a5,a4
2000458c:	40f306b3          	sub	a3,t1,a5
20004590:	16678e63          	beq	a5,t1,2000470c <__umoddi3+0x444>
20004594:	00d61833          	sll	a6,a2,a3
20004598:	00f5de33          	srl	t3,a1,a5
2000459c:	01085313          	srli	t1,a6,0x10
200045a0:	026e5eb3          	divu	t4,t3,t1
200045a4:	01081613          	slli	a2,a6,0x10
200045a8:	00d595b3          	sll	a1,a1,a3
200045ac:	00f55733          	srl	a4,a0,a5
200045b0:	01065613          	srli	a2,a2,0x10
200045b4:	00b76733          	or	a4,a4,a1
200045b8:	01075793          	srli	a5,a4,0x10
200045bc:	00d518b3          	sll	a7,a0,a3
200045c0:	026e7e33          	remu	t3,t3,t1
200045c4:	02ce85b3          	mul	a1,t4,a2
200045c8:	010e1e13          	slli	t3,t3,0x10
200045cc:	01c7e7b3          	or	a5,a5,t3
200045d0:	02b7f263          	bgeu	a5,a1,200045f4 <__umoddi3+0x32c>
200045d4:	00f807b3          	add	a5,a6,a5
200045d8:	0107be33          	sltu	t3,a5,a6
200045dc:	00b7b533          	sltu	a0,a5,a1
200045e0:	001e3e13          	seqz	t3,t3
200045e4:	01c57533          	and	a0,a0,t3
200045e8:	40a00533          	neg	a0,a0
200045ec:	01057533          	and	a0,a0,a6
200045f0:	00f507b3          	add	a5,a0,a5
200045f4:	40b787b3          	sub	a5,a5,a1
200045f8:	0267d5b3          	divu	a1,a5,t1
200045fc:	01071713          	slli	a4,a4,0x10
20004600:	01075713          	srli	a4,a4,0x10
20004604:	0267f7b3          	remu	a5,a5,t1
20004608:	02c585b3          	mul	a1,a1,a2
2000460c:	01079793          	slli	a5,a5,0x10
20004610:	00f76733          	or	a4,a4,a5
20004614:	02b77263          	bgeu	a4,a1,20004638 <__umoddi3+0x370>
20004618:	00e80733          	add	a4,a6,a4
2000461c:	01073533          	sltu	a0,a4,a6
20004620:	00b737b3          	sltu	a5,a4,a1
20004624:	00153513          	seqz	a0,a0
20004628:	00a7f7b3          	and	a5,a5,a0
2000462c:	40f007b3          	neg	a5,a5
20004630:	0107f7b3          	and	a5,a5,a6
20004634:	00e78733          	add	a4,a5,a4
20004638:	40b70733          	sub	a4,a4,a1
2000463c:	026755b3          	divu	a1,a4,t1
20004640:	0108d793          	srli	a5,a7,0x10
20004644:	02677733          	remu	a4,a4,t1
20004648:	02c585b3          	mul	a1,a1,a2
2000464c:	01071713          	slli	a4,a4,0x10
20004650:	00e7e7b3          	or	a5,a5,a4
20004654:	02b7f263          	bgeu	a5,a1,20004678 <__umoddi3+0x3b0>
20004658:	00f807b3          	add	a5,a6,a5
2000465c:	0107b533          	sltu	a0,a5,a6
20004660:	00b7b733          	sltu	a4,a5,a1
20004664:	00153513          	seqz	a0,a0
20004668:	00a77733          	and	a4,a4,a0
2000466c:	40e00733          	neg	a4,a4
20004670:	01077733          	and	a4,a4,a6
20004674:	00f707b3          	add	a5,a4,a5
20004678:	40b787b3          	sub	a5,a5,a1
2000467c:	0267d733          	divu	a4,a5,t1
20004680:	01089893          	slli	a7,a7,0x10
20004684:	0108d893          	srli	a7,a7,0x10
20004688:	0267f533          	remu	a0,a5,t1
2000468c:	02c707b3          	mul	a5,a4,a2
20004690:	01051513          	slli	a0,a0,0x10
20004694:	00a8e533          	or	a0,a7,a0
20004698:	02f57263          	bgeu	a0,a5,200046bc <__umoddi3+0x3f4>
2000469c:	00a80533          	add	a0,a6,a0
200046a0:	01053633          	sltu	a2,a0,a6
200046a4:	00f53733          	sltu	a4,a0,a5
200046a8:	00163613          	seqz	a2,a2
200046ac:	00c77733          	and	a4,a4,a2
200046b0:	40e00733          	neg	a4,a4
200046b4:	01077733          	and	a4,a4,a6
200046b8:	00a70533          	add	a0,a4,a0
200046bc:	40f50533          	sub	a0,a0,a5
200046c0:	00d55533          	srl	a0,a0,a3
200046c4:	00000593          	li	a1,0
200046c8:	00008067          	ret
200046cc:	10063693          	sltiu	a3,a2,256
200046d0:	0016b693          	seqz	a3,a3
200046d4:	00369693          	slli	a3,a3,0x3
200046d8:	c21ff06f          	j	200042f8 <__umoddi3+0x30>
200046dc:	00000693          	li	a3,0
200046e0:	00000713          	li	a4,0
200046e4:	e91ff06f          	j	20004574 <__umoddi3+0x2ac>
200046e8:	1006b713          	sltiu	a4,a3,256
200046ec:	00173713          	seqz	a4,a4
200046f0:	00371713          	slli	a4,a4,0x3
200046f4:	cfdff06f          	j	200043f0 <__umoddi3+0x128>
200046f8:	04b6e463          	bltu	a3,a1,20004740 <__umoddi3+0x478>
200046fc:	04c57263          	bgeu	a0,a2,20004740 <__umoddi3+0x478>
20004700:	000e0513          	mv	a0,t3
20004704:	00030593          	mv	a1,t1
20004708:	00008067          	ret
2000470c:	40c58733          	sub	a4,a1,a2
20004710:	01065313          	srli	t1,a2,0x10
20004714:	01061613          	slli	a2,a2,0x10
20004718:	01065613          	srli	a2,a2,0x10
2000471c:	f21ff06f          	j	2000463c <__umoddi3+0x374>
20004720:	010007b7          	lui	a5,0x1000
20004724:	00f67863          	bgeu	a2,a5,20004734 <__umoddi3+0x46c>
20004728:	01065693          	srli	a3,a2,0x10
2000472c:	01000713          	li	a4,16
20004730:	e45ff06f          	j	20004574 <__umoddi3+0x2ac>
20004734:	01865693          	srli	a3,a2,0x18
20004738:	01800713          	li	a4,24
2000473c:	e39ff06f          	j	20004574 <__umoddi3+0x2ac>
20004740:	40c50e33          	sub	t3,a0,a2
20004744:	01c53333          	sltu	t1,a0,t3
20004748:	40d586b3          	sub	a3,a1,a3
2000474c:	40668333          	sub	t1,a3,t1
20004750:	fb1ff06f          	j	20004700 <__umoddi3+0x438>
20004754:	ffe50513          	addi	a0,a0,-2
20004758:	00668733          	add	a4,a3,t1
2000475c:	d51ff06f          	j	200044ac <__umoddi3+0x1e4>
20004760:	ffe78793          	addi	a5,a5,-2 # fffffe <_start-0x1f000002>
20004764:	00650733          	add	a4,a0,t1
20004768:	d0dff06f          	j	20004474 <__umoddi3+0x1ac>

2000476c <_iprintf_r>:
2000476c:	fc010113          	addi	sp,sp,-64
20004770:	02c12423          	sw	a2,40(sp)
20004774:	02d12623          	sw	a3,44(sp)
20004778:	02e12823          	sw	a4,48(sp)
2000477c:	02f12a23          	sw	a5,52(sp)
20004780:	03012c23          	sw	a6,56(sp)
20004784:	03112e23          	sw	a7,60(sp)
20004788:	00058613          	mv	a2,a1
2000478c:	00852583          	lw	a1,8(a0)
20004790:	02810693          	addi	a3,sp,40
20004794:	00112e23          	sw	ra,28(sp)
20004798:	00d12623          	sw	a3,12(sp)
2000479c:	6c8000ef          	jal	20004e64 <_vfiprintf_r>
200047a0:	01c12083          	lw	ra,28(sp)
200047a4:	04010113          	addi	sp,sp,64
200047a8:	00008067          	ret

200047ac <iprintf>:
200047ac:	fc010113          	addi	sp,sp,-64
200047b0:	02f12a23          	sw	a5,52(sp)
200047b4:	00002797          	auipc	a5,0x2
200047b8:	60c7a783          	lw	a5,1548(a5) # 20006dc0 <_impure_ptr>
200047bc:	02c12423          	sw	a2,40(sp)
200047c0:	02d12623          	sw	a3,44(sp)
200047c4:	02b12223          	sw	a1,36(sp)
200047c8:	02e12823          	sw	a4,48(sp)
200047cc:	03012c23          	sw	a6,56(sp)
200047d0:	03112e23          	sw	a7,60(sp)
200047d4:	0087a583          	lw	a1,8(a5)
200047d8:	02410693          	addi	a3,sp,36
200047dc:	00050613          	mv	a2,a0
200047e0:	00078513          	mv	a0,a5
200047e4:	00112e23          	sw	ra,28(sp)
200047e8:	00d12623          	sw	a3,12(sp)
200047ec:	678000ef          	jal	20004e64 <_vfiprintf_r>
200047f0:	01c12083          	lw	ra,28(sp)
200047f4:	04010113          	addi	sp,sp,64
200047f8:	00008067          	ret

200047fc <setvbuf>:
200047fc:	fd010113          	addi	sp,sp,-48
20004800:	01312e23          	sw	s3,28(sp)
20004804:	00002997          	auipc	s3,0x2
20004808:	5bc9a983          	lw	s3,1468(s3) # 20006dc0 <_impure_ptr>
2000480c:	02812423          	sw	s0,40(sp)
20004810:	02912223          	sw	s1,36(sp)
20004814:	03212023          	sw	s2,32(sp)
20004818:	01412c23          	sw	s4,24(sp)
2000481c:	02112623          	sw	ra,44(sp)
20004820:	01512a23          	sw	s5,20(sp)
20004824:	00050413          	mv	s0,a0
20004828:	00058913          	mv	s2,a1
2000482c:	00060a13          	mv	s4,a2
20004830:	00068493          	mv	s1,a3
20004834:	00098a63          	beqz	s3,20004848 <setvbuf+0x4c>
20004838:	0209a783          	lw	a5,32(s3)
2000483c:	00079663          	bnez	a5,20004848 <setvbuf+0x4c>
20004840:	00098513          	mv	a0,s3
20004844:	3f0010ef          	jal	20005c34 <__sinit>
20004848:	00200793          	li	a5,2
2000484c:	00fa0863          	beq	s4,a5,2000485c <setvbuf+0x60>
20004850:	002a3793          	sltiu	a5,s4,2
20004854:	18078a63          	beqz	a5,200049e8 <setvbuf+0x1ec>
20004858:	1804c863          	bltz	s1,200049e8 <setvbuf+0x1ec>
2000485c:	00040593          	mv	a1,s0
20004860:	00098513          	mv	a0,s3
20004864:	0ac010ef          	jal	20005910 <_fflush_r>
20004868:	03442583          	lw	a1,52(s0)
2000486c:	00058c63          	beqz	a1,20004884 <setvbuf+0x88>
20004870:	04440793          	addi	a5,s0,68
20004874:	00f58663          	beq	a1,a5,20004880 <setvbuf+0x84>
20004878:	00098513          	mv	a0,s3
2000487c:	180000ef          	jal	200049fc <_free_r>
20004880:	02042a23          	sw	zero,52(s0)
20004884:	00c45783          	lhu	a5,12(s0)
20004888:	00042c23          	sw	zero,24(s0)
2000488c:	00042223          	sw	zero,4(s0)
20004890:	0807f793          	andi	a5,a5,128
20004894:	00078863          	beqz	a5,200048a4 <setvbuf+0xa8>
20004898:	01042583          	lw	a1,16(s0)
2000489c:	00098513          	mv	a0,s3
200048a0:	15c000ef          	jal	200049fc <_free_r>
200048a4:	00c45783          	lhu	a5,12(s0)
200048a8:	fffff737          	lui	a4,0xfffff
200048ac:	35c70713          	addi	a4,a4,860 # fffff35c <__stack_top+0xdfff7820>
200048b0:	00e7f7b3          	and	a5,a5,a4
200048b4:	00f41623          	sh	a5,12(s0)
200048b8:	00200793          	li	a5,2
200048bc:	10fa0a63          	beq	s4,a5,200049d0 <setvbuf+0x1d4>
200048c0:	00c10693          	addi	a3,sp,12
200048c4:	00810613          	addi	a2,sp,8
200048c8:	00040593          	mv	a1,s0
200048cc:	00098513          	mv	a0,s3
200048d0:	0cd010ef          	jal	2000619c <__swhatbuf_r>
200048d4:	00c45783          	lhu	a5,12(s0)
200048d8:	00a7e7b3          	or	a5,a5,a0
200048dc:	00f41623          	sh	a5,12(s0)
200048e0:	06049863          	bnez	s1,20004950 <setvbuf+0x154>
200048e4:	00812483          	lw	s1,8(sp)
200048e8:	00048513          	mv	a0,s1
200048ec:	210000ef          	jal	20004afc <malloc>
200048f0:	00050913          	mv	s2,a0
200048f4:	00048a93          	mv	s5,s1
200048f8:	0c051263          	bnez	a0,200049bc <setvbuf+0x1c0>
200048fc:	00812a83          	lw	s5,8(sp)
20004900:	0a9a9663          	bne	s5,s1,200049ac <setvbuf+0x1b0>
20004904:	fff00513          	li	a0,-1
20004908:	00c45783          	lhu	a5,12(s0)
2000490c:	00042423          	sw	zero,8(s0)
20004910:	0027e793          	ori	a5,a5,2
20004914:	00f41623          	sh	a5,12(s0)
20004918:	04740793          	addi	a5,s0,71
2000491c:	00f42023          	sw	a5,0(s0)
20004920:	00f42823          	sw	a5,16(s0)
20004924:	00100793          	li	a5,1
20004928:	00f42a23          	sw	a5,20(s0)
2000492c:	02c12083          	lw	ra,44(sp)
20004930:	02812403          	lw	s0,40(sp)
20004934:	02412483          	lw	s1,36(sp)
20004938:	02012903          	lw	s2,32(sp)
2000493c:	01c12983          	lw	s3,28(sp)
20004940:	01812a03          	lw	s4,24(sp)
20004944:	01412a83          	lw	s5,20(sp)
20004948:	03010113          	addi	sp,sp,48
2000494c:	00008067          	ret
20004950:	f8090ce3          	beqz	s2,200048e8 <setvbuf+0xec>
20004954:	0209a783          	lw	a5,32(s3)
20004958:	00079663          	bnez	a5,20004964 <setvbuf+0x168>
2000495c:	00098513          	mv	a0,s3
20004960:	2d4010ef          	jal	20005c34 <__sinit>
20004964:	00100793          	li	a5,1
20004968:	00fa1863          	bne	s4,a5,20004978 <setvbuf+0x17c>
2000496c:	00c45783          	lhu	a5,12(s0)
20004970:	0147e7b3          	or	a5,a5,s4
20004974:	00f41623          	sh	a5,12(s0)
20004978:	00c41783          	lh	a5,12(s0)
2000497c:	01242023          	sw	s2,0(s0)
20004980:	01242823          	sw	s2,16(s0)
20004984:	00942a23          	sw	s1,20(s0)
20004988:	0087f713          	andi	a4,a5,8
2000498c:	04070a63          	beqz	a4,200049e0 <setvbuf+0x1e4>
20004990:	0017f793          	andi	a5,a5,1
20004994:	04078263          	beqz	a5,200049d8 <setvbuf+0x1dc>
20004998:	409004b3          	neg	s1,s1
2000499c:	00042423          	sw	zero,8(s0)
200049a0:	00942c23          	sw	s1,24(s0)
200049a4:	00000513          	li	a0,0
200049a8:	f85ff06f          	j	2000492c <setvbuf+0x130>
200049ac:	000a8513          	mv	a0,s5
200049b0:	14c000ef          	jal	20004afc <malloc>
200049b4:	00050913          	mv	s2,a0
200049b8:	f40506e3          	beqz	a0,20004904 <setvbuf+0x108>
200049bc:	00c45783          	lhu	a5,12(s0)
200049c0:	000a8493          	mv	s1,s5
200049c4:	0807e793          	ori	a5,a5,128
200049c8:	00f41623          	sh	a5,12(s0)
200049cc:	f89ff06f          	j	20004954 <setvbuf+0x158>
200049d0:	00000513          	li	a0,0
200049d4:	f35ff06f          	j	20004908 <setvbuf+0x10c>
200049d8:	00942423          	sw	s1,8(s0)
200049dc:	fc9ff06f          	j	200049a4 <setvbuf+0x1a8>
200049e0:	00042423          	sw	zero,8(s0)
200049e4:	fc1ff06f          	j	200049a4 <setvbuf+0x1a8>
200049e8:	fff00513          	li	a0,-1
200049ec:	f41ff06f          	j	2000492c <setvbuf+0x130>

200049f0 <__errno>:
200049f0:	00002517          	auipc	a0,0x2
200049f4:	3d052503          	lw	a0,976(a0) # 20006dc0 <_impure_ptr>
200049f8:	00008067          	ret

200049fc <_free_r>:
200049fc:	0e058e63          	beqz	a1,20004af8 <_free_r+0xfc>
20004a00:	ffc5a783          	lw	a5,-4(a1)
20004a04:	fe010113          	addi	sp,sp,-32
20004a08:	00812c23          	sw	s0,24(sp)
20004a0c:	00112e23          	sw	ra,28(sp)
20004a10:	ffc58413          	addi	s0,a1,-4
20004a14:	0007d463          	bgez	a5,20004a1c <_free_r+0x20>
20004a18:	00f40433          	add	s0,s0,a5
20004a1c:	00a12623          	sw	a0,12(sp)
20004a20:	350000ef          	jal	20004d70 <__malloc_lock>
20004a24:	00002797          	auipc	a5,0x2
20004a28:	50c7a783          	lw	a5,1292(a5) # 20006f30 <__malloc_free_list>
20004a2c:	00c12503          	lw	a0,12(sp)
20004a30:	02079063          	bnez	a5,20004a50 <_free_r+0x54>
20004a34:	00042223          	sw	zero,4(s0)
20004a38:	00002797          	auipc	a5,0x2
20004a3c:	4e87ac23          	sw	s0,1272(a5) # 20006f30 <__malloc_free_list>
20004a40:	01812403          	lw	s0,24(sp)
20004a44:	01c12083          	lw	ra,28(sp)
20004a48:	02010113          	addi	sp,sp,32
20004a4c:	3280006f          	j	20004d74 <__malloc_unlock>
20004a50:	02f47463          	bgeu	s0,a5,20004a78 <_free_r+0x7c>
20004a54:	00042683          	lw	a3,0(s0)
20004a58:	00d40733          	add	a4,s0,a3
20004a5c:	00e79a63          	bne	a5,a4,20004a70 <_free_r+0x74>
20004a60:	0007a703          	lw	a4,0(a5)
20004a64:	0047a783          	lw	a5,4(a5)
20004a68:	00d70733          	add	a4,a4,a3
20004a6c:	00e42023          	sw	a4,0(s0)
20004a70:	00f42223          	sw	a5,4(s0)
20004a74:	fc5ff06f          	j	20004a38 <_free_r+0x3c>
20004a78:	00078713          	mv	a4,a5
20004a7c:	0047a783          	lw	a5,4(a5)
20004a80:	00078463          	beqz	a5,20004a88 <_free_r+0x8c>
20004a84:	fef47ae3          	bgeu	s0,a5,20004a78 <_free_r+0x7c>
20004a88:	00072683          	lw	a3,0(a4)
20004a8c:	00d70633          	add	a2,a4,a3
20004a90:	02861863          	bne	a2,s0,20004ac0 <_free_r+0xc4>
20004a94:	00042603          	lw	a2,0(s0)
20004a98:	00c686b3          	add	a3,a3,a2
20004a9c:	00d72023          	sw	a3,0(a4)
20004aa0:	00d70633          	add	a2,a4,a3
20004aa4:	f8c79ee3          	bne	a5,a2,20004a40 <_free_r+0x44>
20004aa8:	0007a603          	lw	a2,0(a5)
20004aac:	0047a783          	lw	a5,4(a5)
20004ab0:	00d606b3          	add	a3,a2,a3
20004ab4:	00d72023          	sw	a3,0(a4)
20004ab8:	00f72223          	sw	a5,4(a4)
20004abc:	f85ff06f          	j	20004a40 <_free_r+0x44>
20004ac0:	00c47863          	bgeu	s0,a2,20004ad0 <_free_r+0xd4>
20004ac4:	00c00793          	li	a5,12
20004ac8:	00f52023          	sw	a5,0(a0)
20004acc:	f75ff06f          	j	20004a40 <_free_r+0x44>
20004ad0:	00042603          	lw	a2,0(s0)
20004ad4:	00c406b3          	add	a3,s0,a2
20004ad8:	00d79a63          	bne	a5,a3,20004aec <_free_r+0xf0>
20004adc:	0007a683          	lw	a3,0(a5)
20004ae0:	0047a783          	lw	a5,4(a5)
20004ae4:	00c686b3          	add	a3,a3,a2
20004ae8:	00d42023          	sw	a3,0(s0)
20004aec:	00f42223          	sw	a5,4(s0)
20004af0:	00872223          	sw	s0,4(a4)
20004af4:	f4dff06f          	j	20004a40 <_free_r+0x44>
20004af8:	00008067          	ret

20004afc <malloc>:
20004afc:	00050593          	mv	a1,a0
20004b00:	00002517          	auipc	a0,0x2
20004b04:	2c052503          	lw	a0,704(a0) # 20006dc0 <_impure_ptr>
20004b08:	0a00006f          	j	20004ba8 <_malloc_r>

20004b0c <free>:
20004b0c:	00050593          	mv	a1,a0
20004b10:	00002517          	auipc	a0,0x2
20004b14:	2b052503          	lw	a0,688(a0) # 20006dc0 <_impure_ptr>
20004b18:	ee5ff06f          	j	200049fc <_free_r>

20004b1c <sbrk_aligned>:
20004b1c:	00002797          	auipc	a5,0x2
20004b20:	4107a783          	lw	a5,1040(a5) # 20006f2c <__malloc_sbrk_start>
20004b24:	ff010113          	addi	sp,sp,-16
20004b28:	00812423          	sw	s0,8(sp)
20004b2c:	01212023          	sw	s2,0(sp)
20004b30:	00112623          	sw	ra,12(sp)
20004b34:	00912223          	sw	s1,4(sp)
20004b38:	00050913          	mv	s2,a0
20004b3c:	00058413          	mv	s0,a1
20004b40:	00079a63          	bnez	a5,20004b54 <sbrk_aligned+0x38>
20004b44:	00000593          	li	a1,0
20004b48:	631010ef          	jal	20006978 <_sbrk_r>
20004b4c:	00002797          	auipc	a5,0x2
20004b50:	3ea7a023          	sw	a0,992(a5) # 20006f2c <__malloc_sbrk_start>
20004b54:	00040593          	mv	a1,s0
20004b58:	00090513          	mv	a0,s2
20004b5c:	61d010ef          	jal	20006978 <_sbrk_r>
20004b60:	fff00493          	li	s1,-1
20004b64:	02951263          	bne	a0,s1,20004b88 <sbrk_aligned+0x6c>
20004b68:	fff00413          	li	s0,-1
20004b6c:	00c12083          	lw	ra,12(sp)
20004b70:	00040513          	mv	a0,s0
20004b74:	00812403          	lw	s0,8(sp)
20004b78:	00412483          	lw	s1,4(sp)
20004b7c:	00012903          	lw	s2,0(sp)
20004b80:	01010113          	addi	sp,sp,16
20004b84:	00008067          	ret
20004b88:	00350413          	addi	s0,a0,3
20004b8c:	ffc47413          	andi	s0,s0,-4
20004b90:	fc850ee3          	beq	a0,s0,20004b6c <sbrk_aligned+0x50>
20004b94:	40a405b3          	sub	a1,s0,a0
20004b98:	00090513          	mv	a0,s2
20004b9c:	5dd010ef          	jal	20006978 <_sbrk_r>
20004ba0:	fc9516e3          	bne	a0,s1,20004b6c <sbrk_aligned+0x50>
20004ba4:	fc5ff06f          	j	20004b68 <sbrk_aligned+0x4c>

20004ba8 <_malloc_r>:
20004ba8:	fe010113          	addi	sp,sp,-32
20004bac:	00912a23          	sw	s1,20(sp)
20004bb0:	00358493          	addi	s1,a1,3
20004bb4:	ffc4f493          	andi	s1,s1,-4
20004bb8:	00112e23          	sw	ra,28(sp)
20004bbc:	00812c23          	sw	s0,24(sp)
20004bc0:	01212823          	sw	s2,16(sp)
20004bc4:	01312623          	sw	s3,12(sp)
20004bc8:	01412423          	sw	s4,8(sp)
20004bcc:	00848493          	addi	s1,s1,8
20004bd0:	00c00793          	li	a5,12
20004bd4:	00f4f463          	bgeu	s1,a5,20004bdc <_malloc_r+0x34>
20004bd8:	00078493          	mv	s1,a5
20004bdc:	0004c463          	bltz	s1,20004be4 <_malloc_r+0x3c>
20004be0:	02b4f863          	bgeu	s1,a1,20004c10 <_malloc_r+0x68>
20004be4:	00c00793          	li	a5,12
20004be8:	00f52023          	sw	a5,0(a0)
20004bec:	00000513          	li	a0,0
20004bf0:	01c12083          	lw	ra,28(sp)
20004bf4:	01812403          	lw	s0,24(sp)
20004bf8:	01412483          	lw	s1,20(sp)
20004bfc:	01012903          	lw	s2,16(sp)
20004c00:	00c12983          	lw	s3,12(sp)
20004c04:	00812a03          	lw	s4,8(sp)
20004c08:	02010113          	addi	sp,sp,32
20004c0c:	00008067          	ret
20004c10:	00050913          	mv	s2,a0
20004c14:	00002997          	auipc	s3,0x2
20004c18:	31c98993          	addi	s3,s3,796 # 20006f30 <__malloc_free_list>
20004c1c:	154000ef          	jal	20004d70 <__malloc_lock>
20004c20:	0009a783          	lw	a5,0(s3)
20004c24:	00078413          	mv	s0,a5
20004c28:	08041263          	bnez	s0,20004cac <_malloc_r+0x104>
20004c2c:	00048593          	mv	a1,s1
20004c30:	00090513          	mv	a0,s2
20004c34:	ee9ff0ef          	jal	20004b1c <sbrk_aligned>
20004c38:	fff00793          	li	a5,-1
20004c3c:	00050413          	mv	s0,a0
20004c40:	12f51463          	bne	a0,a5,20004d68 <_malloc_r+0x1c0>
20004c44:	0009a403          	lw	s0,0(s3)
20004c48:	00040793          	mv	a5,s0
20004c4c:	0e079463          	bnez	a5,20004d34 <_malloc_r+0x18c>
20004c50:	10040263          	beqz	s0,20004d54 <_malloc_r+0x1ac>
20004c54:	00042a03          	lw	s4,0(s0)
20004c58:	00000593          	li	a1,0
20004c5c:	00090513          	mv	a0,s2
20004c60:	01440a33          	add	s4,s0,s4
20004c64:	515010ef          	jal	20006978 <_sbrk_r>
20004c68:	0eaa1663          	bne	s4,a0,20004d54 <_malloc_r+0x1ac>
20004c6c:	00042783          	lw	a5,0(s0)
20004c70:	00090513          	mv	a0,s2
20004c74:	40f484b3          	sub	s1,s1,a5
20004c78:	00048593          	mv	a1,s1
20004c7c:	ea1ff0ef          	jal	20004b1c <sbrk_aligned>
20004c80:	fff00793          	li	a5,-1
20004c84:	0cf50863          	beq	a0,a5,20004d54 <_malloc_r+0x1ac>
20004c88:	00042783          	lw	a5,0(s0)
20004c8c:	009787b3          	add	a5,a5,s1
20004c90:	00f42023          	sw	a5,0(s0)
20004c94:	0009a783          	lw	a5,0(s3)
20004c98:	0047a703          	lw	a4,4(a5)
20004c9c:	0a071263          	bnez	a4,20004d40 <_malloc_r+0x198>
20004ca0:	00002797          	auipc	a5,0x2
20004ca4:	2807a823          	sw	zero,656(a5) # 20006f30 <__malloc_free_list>
20004ca8:	0340006f          	j	20004cdc <_malloc_r+0x134>
20004cac:	00042683          	lw	a3,0(s0)
20004cb0:	409686b3          	sub	a3,a3,s1
20004cb4:	0606ca63          	bltz	a3,20004d28 <_malloc_r+0x180>
20004cb8:	00b00713          	li	a4,11
20004cbc:	04d77a63          	bgeu	a4,a3,20004d10 <_malloc_r+0x168>
20004cc0:	00942023          	sw	s1,0(s0)
20004cc4:	00940733          	add	a4,s0,s1
20004cc8:	04879063          	bne	a5,s0,20004d08 <_malloc_r+0x160>
20004ccc:	00e9a023          	sw	a4,0(s3)
20004cd0:	00442783          	lw	a5,4(s0)
20004cd4:	00d72023          	sw	a3,0(a4)
20004cd8:	00f72223          	sw	a5,4(a4)
20004cdc:	00090513          	mv	a0,s2
20004ce0:	094000ef          	jal	20004d74 <__malloc_unlock>
20004ce4:	00b40513          	addi	a0,s0,11
20004ce8:	00440793          	addi	a5,s0,4
20004cec:	ff857513          	andi	a0,a0,-8
20004cf0:	40f50733          	sub	a4,a0,a5
20004cf4:	ee070ee3          	beqz	a4,20004bf0 <_malloc_r+0x48>
20004cf8:	00e40433          	add	s0,s0,a4
20004cfc:	40a787b3          	sub	a5,a5,a0
20004d00:	00f42023          	sw	a5,0(s0)
20004d04:	eedff06f          	j	20004bf0 <_malloc_r+0x48>
20004d08:	00e7a223          	sw	a4,4(a5)
20004d0c:	fc5ff06f          	j	20004cd0 <_malloc_r+0x128>
20004d10:	00442703          	lw	a4,4(s0)
20004d14:	00879663          	bne	a5,s0,20004d20 <_malloc_r+0x178>
20004d18:	00e9a023          	sw	a4,0(s3)
20004d1c:	fc1ff06f          	j	20004cdc <_malloc_r+0x134>
20004d20:	00e7a223          	sw	a4,4(a5)
20004d24:	fb9ff06f          	j	20004cdc <_malloc_r+0x134>
20004d28:	00040793          	mv	a5,s0
20004d2c:	00442403          	lw	s0,4(s0)
20004d30:	ef9ff06f          	j	20004c28 <_malloc_r+0x80>
20004d34:	00078413          	mv	s0,a5
20004d38:	0047a783          	lw	a5,4(a5)
20004d3c:	f11ff06f          	j	20004c4c <_malloc_r+0xa4>
20004d40:	00078713          	mv	a4,a5
20004d44:	0047a783          	lw	a5,4(a5)
20004d48:	fe879ce3          	bne	a5,s0,20004d40 <_malloc_r+0x198>
20004d4c:	00072223          	sw	zero,4(a4)
20004d50:	f8dff06f          	j	20004cdc <_malloc_r+0x134>
20004d54:	00c00793          	li	a5,12
20004d58:	00f92023          	sw	a5,0(s2)
20004d5c:	00090513          	mv	a0,s2
20004d60:	014000ef          	jal	20004d74 <__malloc_unlock>
20004d64:	e89ff06f          	j	20004bec <_malloc_r+0x44>
20004d68:	00952023          	sw	s1,0(a0)
20004d6c:	f71ff06f          	j	20004cdc <_malloc_r+0x134>

20004d70 <__malloc_lock>:
20004d70:	00008067          	ret

20004d74 <__malloc_unlock>:
20004d74:	00008067          	ret

20004d78 <__sfputc_r>:
20004d78:	00862783          	lw	a5,8(a2) # 10008 <_start-0x1ffefff8>
20004d7c:	fff78793          	addi	a5,a5,-1
20004d80:	00f62423          	sw	a5,8(a2)
20004d84:	0007dc63          	bgez	a5,20004d9c <__sfputc_r+0x24>
20004d88:	01862703          	lw	a4,24(a2)
20004d8c:	00e7c663          	blt	a5,a4,20004d98 <__sfputc_r+0x20>
20004d90:	ff658793          	addi	a5,a1,-10
20004d94:	00079463          	bnez	a5,20004d9c <__sfputc_r+0x24>
20004d98:	6980106f          	j	20006430 <__swbuf_r>
20004d9c:	00062783          	lw	a5,0(a2)
20004da0:	00058513          	mv	a0,a1
20004da4:	00178713          	addi	a4,a5,1
20004da8:	00e62023          	sw	a4,0(a2)
20004dac:	00b78023          	sb	a1,0(a5)
20004db0:	00008067          	ret

20004db4 <__sfputs_r>:
20004db4:	fe010113          	addi	sp,sp,-32
20004db8:	00812c23          	sw	s0,24(sp)
20004dbc:	00912a23          	sw	s1,20(sp)
20004dc0:	01212823          	sw	s2,16(sp)
20004dc4:	01312623          	sw	s3,12(sp)
20004dc8:	01412423          	sw	s4,8(sp)
20004dcc:	00112e23          	sw	ra,28(sp)
20004dd0:	00050993          	mv	s3,a0
20004dd4:	00058a13          	mv	s4,a1
20004dd8:	00060413          	mv	s0,a2
20004ddc:	00d604b3          	add	s1,a2,a3
20004de0:	fff00913          	li	s2,-1
20004de4:	00941663          	bne	s0,s1,20004df0 <__sfputs_r+0x3c>
20004de8:	00000513          	li	a0,0
20004dec:	01c0006f          	j	20004e08 <__sfputs_r+0x54>
20004df0:	00044583          	lbu	a1,0(s0)
20004df4:	000a0613          	mv	a2,s4
20004df8:	00098513          	mv	a0,s3
20004dfc:	f7dff0ef          	jal	20004d78 <__sfputc_r>
20004e00:	00140413          	addi	s0,s0,1
20004e04:	ff2510e3          	bne	a0,s2,20004de4 <__sfputs_r+0x30>
20004e08:	01c12083          	lw	ra,28(sp)
20004e0c:	01812403          	lw	s0,24(sp)
20004e10:	01412483          	lw	s1,20(sp)
20004e14:	01012903          	lw	s2,16(sp)
20004e18:	00c12983          	lw	s3,12(sp)
20004e1c:	00812a03          	lw	s4,8(sp)
20004e20:	02010113          	addi	sp,sp,32
20004e24:	00008067          	ret

20004e28 <__sprint_r>:
20004e28:	00862783          	lw	a5,8(a2)
20004e2c:	ff010113          	addi	sp,sp,-16
20004e30:	00812423          	sw	s0,8(sp)
20004e34:	00112623          	sw	ra,12(sp)
20004e38:	00060413          	mv	s0,a2
20004e3c:	02078063          	beqz	a5,20004e5c <__sprint_r+0x34>
20004e40:	655000ef          	jal	20005c94 <__sfvwrite_r>
20004e44:	00042423          	sw	zero,8(s0)
20004e48:	00c12083          	lw	ra,12(sp)
20004e4c:	00042223          	sw	zero,4(s0)
20004e50:	00812403          	lw	s0,8(sp)
20004e54:	01010113          	addi	sp,sp,16
20004e58:	00008067          	ret
20004e5c:	00000513          	li	a0,0
20004e60:	fe9ff06f          	j	20004e48 <__sprint_r+0x20>

20004e64 <_vfiprintf_r>:
20004e64:	f5010113          	addi	sp,sp,-176
20004e68:	0a812423          	sw	s0,168(sp)
20004e6c:	0a912223          	sw	s1,164(sp)
20004e70:	09312e23          	sw	s3,156(sp)
20004e74:	09412c23          	sw	s4,152(sp)
20004e78:	0a112623          	sw	ra,172(sp)
20004e7c:	0b212023          	sw	s2,160(sp)
20004e80:	09512a23          	sw	s5,148(sp)
20004e84:	09612823          	sw	s6,144(sp)
20004e88:	09712623          	sw	s7,140(sp)
20004e8c:	09812423          	sw	s8,136(sp)
20004e90:	09912223          	sw	s9,132(sp)
20004e94:	00050993          	mv	s3,a0
20004e98:	00058493          	mv	s1,a1
20004e9c:	00060413          	mv	s0,a2
20004ea0:	00068a13          	mv	s4,a3
20004ea4:	00050863          	beqz	a0,20004eb4 <_vfiprintf_r+0x50>
20004ea8:	02052783          	lw	a5,32(a0)
20004eac:	00079463          	bnez	a5,20004eb4 <_vfiprintf_r+0x50>
20004eb0:	585000ef          	jal	20005c34 <__sinit>
20004eb4:	00c4d783          	lhu	a5,12(s1)
20004eb8:	0087f793          	andi	a5,a5,8
20004ebc:	10078c63          	beqz	a5,20004fd4 <_vfiprintf_r+0x170>
20004ec0:	0104a783          	lw	a5,16(s1)
20004ec4:	10078863          	beqz	a5,20004fd4 <_vfiprintf_r+0x170>
20004ec8:	02000793          	li	a5,32
20004ecc:	02f10ca3          	sb	a5,57(sp)
20004ed0:	03000793          	li	a5,48
20004ed4:	01412e23          	sw	s4,28(sp)
20004ed8:	02012a23          	sw	zero,52(sp)
20004edc:	02f10d23          	sb	a5,58(sp)
20004ee0:	fff00a13          	li	s4,-1
20004ee4:	00002b17          	auipc	s6,0x2
20004ee8:	da8b0b13          	addi	s6,s6,-600 # 20006c8c <__clz_tab+0x100>
20004eec:	00100b93          	li	s7,1
20004ef0:	00a00a93          	li	s5,10
20004ef4:	00040c13          	mv	s8,s0
20004ef8:	000c4783          	lbu	a5,0(s8)
20004efc:	00f03cb3          	snez	s9,a5
20004f00:	fdb78793          	addi	a5,a5,-37
20004f04:	00f037b3          	snez	a5,a5
20004f08:	00fcfcb3          	and	s9,s9,a5
20004f0c:	100c9863          	bnez	s9,2000501c <_vfiprintf_r+0x1b8>
20004f10:	408c06b3          	sub	a3,s8,s0
20004f14:	02068663          	beqz	a3,20004f40 <_vfiprintf_r+0xdc>
20004f18:	00040613          	mv	a2,s0
20004f1c:	00048593          	mv	a1,s1
20004f20:	00098513          	mv	a0,s3
20004f24:	00d12623          	sw	a3,12(sp)
20004f28:	e8dff0ef          	jal	20004db4 <__sfputs_r>
20004f2c:	29450463          	beq	a0,s4,200051b4 <_vfiprintf_r+0x350>
20004f30:	03412783          	lw	a5,52(sp)
20004f34:	00c12683          	lw	a3,12(sp)
20004f38:	00d787b3          	add	a5,a5,a3
20004f3c:	02f12a23          	sw	a5,52(sp)
20004f40:	000c4783          	lbu	a5,0(s8)
20004f44:	26078863          	beqz	a5,200051b4 <_vfiprintf_r+0x350>
20004f48:	001c0413          	addi	s0,s8,1
20004f4c:	02012023          	sw	zero,32(sp)
20004f50:	02012623          	sw	zero,44(sp)
20004f54:	03412223          	sw	s4,36(sp)
20004f58:	02012423          	sw	zero,40(sp)
20004f5c:	060101a3          	sb	zero,99(sp)
20004f60:	06012c23          	sw	zero,120(sp)
20004f64:	00044583          	lbu	a1,0(s0)
20004f68:	00500613          	li	a2,5
20004f6c:	00002517          	auipc	a0,0x2
20004f70:	d2050513          	addi	a0,a0,-736 # 20006c8c <__clz_tab+0x100>
20004f74:	6e8010ef          	jal	2000665c <memchr>
20004f78:	02012783          	lw	a5,32(sp)
20004f7c:	00140693          	addi	a3,s0,1
20004f80:	0a051263          	bnez	a0,20005024 <_vfiprintf_r+0x1c0>
20004f84:	0107f713          	andi	a4,a5,16
20004f88:	00070663          	beqz	a4,20004f94 <_vfiprintf_r+0x130>
20004f8c:	02000713          	li	a4,32
20004f90:	06e101a3          	sb	a4,99(sp)
20004f94:	0087f713          	andi	a4,a5,8
20004f98:	00070663          	beqz	a4,20004fa4 <_vfiprintf_r+0x140>
20004f9c:	02b00713          	li	a4,43
20004fa0:	06e101a3          	sb	a4,99(sp)
20004fa4:	00044603          	lbu	a2,0(s0)
20004fa8:	02a00713          	li	a4,42
20004fac:	08e60863          	beq	a2,a4,2000503c <_vfiprintf_r+0x1d8>
20004fb0:	02c12783          	lw	a5,44(sp)
20004fb4:	00000693          	li	a3,0
20004fb8:	00900613          	li	a2,9
20004fbc:	00044703          	lbu	a4,0(s0)
20004fc0:	fd070713          	addi	a4,a4,-48
20004fc4:	0ee67263          	bgeu	a2,a4,200050a8 <_vfiprintf_r+0x244>
20004fc8:	08068863          	beqz	a3,20005058 <_vfiprintf_r+0x1f4>
20004fcc:	02f12623          	sw	a5,44(sp)
20004fd0:	0880006f          	j	20005058 <_vfiprintf_r+0x1f4>
20004fd4:	00048593          	mv	a1,s1
20004fd8:	00098513          	mv	a0,s3
20004fdc:	564010ef          	jal	20006540 <__swsetup_r>
20004fe0:	ee0504e3          	beqz	a0,20004ec8 <_vfiprintf_r+0x64>
20004fe4:	fff00513          	li	a0,-1
20004fe8:	0ac12083          	lw	ra,172(sp)
20004fec:	0a812403          	lw	s0,168(sp)
20004ff0:	0a412483          	lw	s1,164(sp)
20004ff4:	0a012903          	lw	s2,160(sp)
20004ff8:	09c12983          	lw	s3,156(sp)
20004ffc:	09812a03          	lw	s4,152(sp)
20005000:	09412a83          	lw	s5,148(sp)
20005004:	09012b03          	lw	s6,144(sp)
20005008:	08c12b83          	lw	s7,140(sp)
2000500c:	08812c03          	lw	s8,136(sp)
20005010:	08412c83          	lw	s9,132(sp)
20005014:	0b010113          	addi	sp,sp,176
20005018:	00008067          	ret
2000501c:	001c0c13          	addi	s8,s8,1
20005020:	ed9ff06f          	j	20004ef8 <_vfiprintf_r+0x94>
20005024:	41650533          	sub	a0,a0,s6
20005028:	00ab9533          	sll	a0,s7,a0
2000502c:	00f56533          	or	a0,a0,a5
20005030:	02a12023          	sw	a0,32(sp)
20005034:	00068413          	mv	s0,a3
20005038:	f2dff06f          	j	20004f64 <_vfiprintf_r+0x100>
2000503c:	01c12703          	lw	a4,28(sp)
20005040:	00470613          	addi	a2,a4,4
20005044:	00072703          	lw	a4,0(a4)
20005048:	00c12e23          	sw	a2,28(sp)
2000504c:	04074463          	bltz	a4,20005094 <_vfiprintf_r+0x230>
20005050:	02e12623          	sw	a4,44(sp)
20005054:	00068413          	mv	s0,a3
20005058:	00044703          	lbu	a4,0(s0)
2000505c:	02e00793          	li	a5,46
20005060:	06f71e63          	bne	a4,a5,200050dc <_vfiprintf_r+0x278>
20005064:	00144703          	lbu	a4,1(s0)
20005068:	02a00793          	li	a5,42
2000506c:	04f71863          	bne	a4,a5,200050bc <_vfiprintf_r+0x258>
20005070:	01c12783          	lw	a5,28(sp)
20005074:	00240413          	addi	s0,s0,2
20005078:	00478713          	addi	a4,a5,4
2000507c:	0007a783          	lw	a5,0(a5)
20005080:	00e12e23          	sw	a4,28(sp)
20005084:	0007d463          	bgez	a5,2000508c <_vfiprintf_r+0x228>
20005088:	fff00793          	li	a5,-1
2000508c:	02f12223          	sw	a5,36(sp)
20005090:	04c0006f          	j	200050dc <_vfiprintf_r+0x278>
20005094:	40e00733          	neg	a4,a4
20005098:	0027e793          	ori	a5,a5,2
2000509c:	02e12623          	sw	a4,44(sp)
200050a0:	02f12023          	sw	a5,32(sp)
200050a4:	fb1ff06f          	j	20005054 <_vfiprintf_r+0x1f0>
200050a8:	035787b3          	mul	a5,a5,s5
200050ac:	00140413          	addi	s0,s0,1
200050b0:	00100693          	li	a3,1
200050b4:	00e787b3          	add	a5,a5,a4
200050b8:	f05ff06f          	j	20004fbc <_vfiprintf_r+0x158>
200050bc:	00140413          	addi	s0,s0,1
200050c0:	02012223          	sw	zero,36(sp)
200050c4:	00000793          	li	a5,0
200050c8:	00900693          	li	a3,9
200050cc:	00044703          	lbu	a4,0(s0)
200050d0:	fd070713          	addi	a4,a4,-48
200050d4:	08e6fa63          	bgeu	a3,a4,20005168 <_vfiprintf_r+0x304>
200050d8:	fa0c9ae3          	bnez	s9,2000508c <_vfiprintf_r+0x228>
200050dc:	00044583          	lbu	a1,0(s0)
200050e0:	00300613          	li	a2,3
200050e4:	00002517          	auipc	a0,0x2
200050e8:	bb050513          	addi	a0,a0,-1104 # 20006c94 <__clz_tab+0x108>
200050ec:	570010ef          	jal	2000665c <memchr>
200050f0:	02050463          	beqz	a0,20005118 <_vfiprintf_r+0x2b4>
200050f4:	00002797          	auipc	a5,0x2
200050f8:	ba078793          	addi	a5,a5,-1120 # 20006c94 <__clz_tab+0x108>
200050fc:	40f50533          	sub	a0,a0,a5
20005100:	02012783          	lw	a5,32(sp)
20005104:	04000713          	li	a4,64
20005108:	00a71733          	sll	a4,a4,a0
2000510c:	00e7e7b3          	or	a5,a5,a4
20005110:	00140413          	addi	s0,s0,1
20005114:	02f12023          	sw	a5,32(sp)
20005118:	00044583          	lbu	a1,0(s0)
2000511c:	00600613          	li	a2,6
20005120:	00002517          	auipc	a0,0x2
20005124:	b7850513          	addi	a0,a0,-1160 # 20006c98 <__clz_tab+0x10c>
20005128:	02b10c23          	sb	a1,56(sp)
2000512c:	530010ef          	jal	2000665c <memchr>
20005130:	08050c63          	beqz	a0,200051c8 <_vfiprintf_r+0x364>
20005134:	00000793          	li	a5,0
20005138:	04079a63          	bnez	a5,2000518c <_vfiprintf_r+0x328>
2000513c:	02012703          	lw	a4,32(sp)
20005140:	01c12783          	lw	a5,28(sp)
20005144:	10077713          	andi	a4,a4,256
20005148:	02070a63          	beqz	a4,2000517c <_vfiprintf_r+0x318>
2000514c:	00478793          	addi	a5,a5,4
20005150:	00f12e23          	sw	a5,28(sp)
20005154:	03412783          	lw	a5,52(sp)
20005158:	00140413          	addi	s0,s0,1
2000515c:	012787b3          	add	a5,a5,s2
20005160:	02f12a23          	sw	a5,52(sp)
20005164:	d91ff06f          	j	20004ef4 <_vfiprintf_r+0x90>
20005168:	035787b3          	mul	a5,a5,s5
2000516c:	00140413          	addi	s0,s0,1
20005170:	00100c93          	li	s9,1
20005174:	00e787b3          	add	a5,a5,a4
20005178:	f55ff06f          	j	200050cc <_vfiprintf_r+0x268>
2000517c:	00778793          	addi	a5,a5,7
20005180:	ff87f793          	andi	a5,a5,-8
20005184:	00878793          	addi	a5,a5,8
20005188:	fc9ff06f          	j	20005150 <_vfiprintf_r+0x2ec>
2000518c:	01c10713          	addi	a4,sp,28
20005190:	00000697          	auipc	a3,0x0
20005194:	c2468693          	addi	a3,a3,-988 # 20004db4 <__sfputs_r>
20005198:	00048613          	mv	a2,s1
2000519c:	02010593          	addi	a1,sp,32
200051a0:	00098513          	mv	a0,s3
200051a4:	00000097          	auipc	ra,0x0
200051a8:	000000e7          	jalr	zero # 0 <_start-0x20000000>
200051ac:	00050913          	mv	s2,a0
200051b0:	fb4512e3          	bne	a0,s4,20005154 <_vfiprintf_r+0x2f0>
200051b4:	00c4d783          	lhu	a5,12(s1)
200051b8:	0407f793          	andi	a5,a5,64
200051bc:	e20794e3          	bnez	a5,20004fe4 <_vfiprintf_r+0x180>
200051c0:	03412503          	lw	a0,52(sp)
200051c4:	e25ff06f          	j	20004fe8 <_vfiprintf_r+0x184>
200051c8:	01c10713          	addi	a4,sp,28
200051cc:	00000697          	auipc	a3,0x0
200051d0:	be868693          	addi	a3,a3,-1048 # 20004db4 <__sfputs_r>
200051d4:	00048613          	mv	a2,s1
200051d8:	02010593          	addi	a1,sp,32
200051dc:	00098513          	mv	a0,s3
200051e0:	1d4000ef          	jal	200053b4 <_printf_i>
200051e4:	fc9ff06f          	j	200051ac <_vfiprintf_r+0x348>

200051e8 <vfiprintf>:
200051e8:	00060693          	mv	a3,a2
200051ec:	00058613          	mv	a2,a1
200051f0:	00050593          	mv	a1,a0
200051f4:	00002517          	auipc	a0,0x2
200051f8:	bcc52503          	lw	a0,-1076(a0) # 20006dc0 <_impure_ptr>
200051fc:	c69ff06f          	j	20004e64 <_vfiprintf_r>

20005200 <_printf_common>:
20005200:	fd010113          	addi	sp,sp,-48
20005204:	01312e23          	sw	s3,28(sp)
20005208:	0105a783          	lw	a5,16(a1)
2000520c:	00070993          	mv	s3,a4
20005210:	0085a703          	lw	a4,8(a1)
20005214:	02812423          	sw	s0,40(sp)
20005218:	03212023          	sw	s2,32(sp)
2000521c:	01612823          	sw	s6,16(sp)
20005220:	01712623          	sw	s7,12(sp)
20005224:	02112623          	sw	ra,44(sp)
20005228:	02912223          	sw	s1,36(sp)
2000522c:	01412c23          	sw	s4,24(sp)
20005230:	01512a23          	sw	s5,20(sp)
20005234:	00050b13          	mv	s6,a0
20005238:	00058413          	mv	s0,a1
2000523c:	00060913          	mv	s2,a2
20005240:	00068b93          	mv	s7,a3
20005244:	00e7d463          	bge	a5,a4,2000524c <_printf_common+0x4c>
20005248:	00070793          	mv	a5,a4
2000524c:	00f92023          	sw	a5,0(s2)
20005250:	04344703          	lbu	a4,67(s0)
20005254:	00070663          	beqz	a4,20005260 <_printf_common+0x60>
20005258:	00178793          	addi	a5,a5,1
2000525c:	00f92023          	sw	a5,0(s2)
20005260:	00042783          	lw	a5,0(s0)
20005264:	0207f793          	andi	a5,a5,32
20005268:	00078863          	beqz	a5,20005278 <_printf_common+0x78>
2000526c:	00092783          	lw	a5,0(s2)
20005270:	00278793          	addi	a5,a5,2
20005274:	00f92023          	sw	a5,0(s2)
20005278:	00042483          	lw	s1,0(s0)
2000527c:	0064f493          	andi	s1,s1,6
20005280:	00049e63          	bnez	s1,2000529c <_printf_common+0x9c>
20005284:	01940a13          	addi	s4,s0,25
20005288:	fff00a93          	li	s5,-1
2000528c:	00c42783          	lw	a5,12(s0)
20005290:	00092703          	lw	a4,0(s2)
20005294:	40e787b3          	sub	a5,a5,a4
20005298:	08f4c463          	blt	s1,a5,20005320 <_printf_common+0x120>
2000529c:	00042783          	lw	a5,0(s0)
200052a0:	04344683          	lbu	a3,67(s0)
200052a4:	0207f793          	andi	a5,a5,32
200052a8:	00d036b3          	snez	a3,a3
200052ac:	0c079263          	bnez	a5,20005370 <_printf_common+0x170>
200052b0:	04340613          	addi	a2,s0,67
200052b4:	000b8593          	mv	a1,s7
200052b8:	000b0513          	mv	a0,s6
200052bc:	000980e7          	jalr	s3
200052c0:	fff00793          	li	a5,-1
200052c4:	06f50a63          	beq	a0,a5,20005338 <_printf_common+0x138>
200052c8:	00042783          	lw	a5,0(s0)
200052cc:	00400713          	li	a4,4
200052d0:	00000493          	li	s1,0
200052d4:	0067f793          	andi	a5,a5,6
200052d8:	00e79e63          	bne	a5,a4,200052f4 <_printf_common+0xf4>
200052dc:	00092783          	lw	a5,0(s2)
200052e0:	00c42483          	lw	s1,12(s0)
200052e4:	40f484b3          	sub	s1,s1,a5
200052e8:	fff4c793          	not	a5,s1
200052ec:	41f7d793          	srai	a5,a5,0x1f
200052f0:	00f4f4b3          	and	s1,s1,a5
200052f4:	00842783          	lw	a5,8(s0)
200052f8:	01042703          	lw	a4,16(s0)
200052fc:	00f75663          	bge	a4,a5,20005308 <_printf_common+0x108>
20005300:	40e787b3          	sub	a5,a5,a4
20005304:	00f484b3          	add	s1,s1,a5
20005308:	00000913          	li	s2,0
2000530c:	01a40413          	addi	s0,s0,26
20005310:	fff00a13          	li	s4,-1
20005314:	09249063          	bne	s1,s2,20005394 <_printf_common+0x194>
20005318:	00000513          	li	a0,0
2000531c:	0200006f          	j	2000533c <_printf_common+0x13c>
20005320:	00100693          	li	a3,1
20005324:	000a0613          	mv	a2,s4
20005328:	000b8593          	mv	a1,s7
2000532c:	000b0513          	mv	a0,s6
20005330:	000980e7          	jalr	s3
20005334:	03551a63          	bne	a0,s5,20005368 <_printf_common+0x168>
20005338:	fff00513          	li	a0,-1
2000533c:	02c12083          	lw	ra,44(sp)
20005340:	02812403          	lw	s0,40(sp)
20005344:	02412483          	lw	s1,36(sp)
20005348:	02012903          	lw	s2,32(sp)
2000534c:	01c12983          	lw	s3,28(sp)
20005350:	01812a03          	lw	s4,24(sp)
20005354:	01412a83          	lw	s5,20(sp)
20005358:	01012b03          	lw	s6,16(sp)
2000535c:	00c12b83          	lw	s7,12(sp)
20005360:	03010113          	addi	sp,sp,48
20005364:	00008067          	ret
20005368:	00148493          	addi	s1,s1,1
2000536c:	f21ff06f          	j	2000528c <_printf_common+0x8c>
20005370:	00d40733          	add	a4,s0,a3
20005374:	03000613          	li	a2,48
20005378:	04c701a3          	sb	a2,67(a4)
2000537c:	04544703          	lbu	a4,69(s0)
20005380:	00168793          	addi	a5,a3,1
20005384:	00f407b3          	add	a5,s0,a5
20005388:	00268693          	addi	a3,a3,2
2000538c:	04e781a3          	sb	a4,67(a5)
20005390:	f21ff06f          	j	200052b0 <_printf_common+0xb0>
20005394:	00100693          	li	a3,1
20005398:	00040613          	mv	a2,s0
2000539c:	000b8593          	mv	a1,s7
200053a0:	000b0513          	mv	a0,s6
200053a4:	000980e7          	jalr	s3
200053a8:	f94508e3          	beq	a0,s4,20005338 <_printf_common+0x138>
200053ac:	00190913          	addi	s2,s2,1
200053b0:	f65ff06f          	j	20005314 <_printf_common+0x114>

200053b4 <_printf_i>:
200053b4:	fc010113          	addi	sp,sp,-64
200053b8:	02812c23          	sw	s0,56(sp)
200053bc:	02912a23          	sw	s1,52(sp)
200053c0:	03412423          	sw	s4,40(sp)
200053c4:	03512223          	sw	s5,36(sp)
200053c8:	02112e23          	sw	ra,60(sp)
200053cc:	03212823          	sw	s2,48(sp)
200053d0:	03312623          	sw	s3,44(sp)
200053d4:	0185c783          	lbu	a5,24(a1)
200053d8:	00068493          	mv	s1,a3
200053dc:	07800693          	li	a3,120
200053e0:	00050a13          	mv	s4,a0
200053e4:	00058413          	mv	s0,a1
200053e8:	00060a93          	mv	s5,a2
200053ec:	02f6e263          	bltu	a3,a5,20005410 <_printf_i+0x5c>
200053f0:	06200693          	li	a3,98
200053f4:	04358613          	addi	a2,a1,67
200053f8:	02f6e063          	bltu	a3,a5,20005418 <_printf_i+0x64>
200053fc:	28078663          	beqz	a5,20005688 <_printf_i+0x2d4>
20005400:	05800593          	li	a1,88
20005404:	00002697          	auipc	a3,0x2
20005408:	89c68693          	addi	a3,a3,-1892 # 20006ca0 <__clz_tab+0x114>
2000540c:	1cb78a63          	beq	a5,a1,200055e0 <_printf_i+0x22c>
20005410:	04240913          	addi	s2,s0,66
20005414:	0440006f          	j	20005458 <_printf_i+0xa4>
20005418:	f9d78693          	addi	a3,a5,-99
2000541c:	0ff6f693          	zext.b	a3,a3
20005420:	01500593          	li	a1,21
20005424:	fed5e6e3          	bltu	a1,a3,20005410 <_printf_i+0x5c>
20005428:	00002597          	auipc	a1,0x2
2000542c:	8a058593          	addi	a1,a1,-1888 # 20006cc8 <__clz_tab+0x13c>
20005430:	00269693          	slli	a3,a3,0x2
20005434:	00b686b3          	add	a3,a3,a1
20005438:	0006a683          	lw	a3,0(a3)
2000543c:	00b686b3          	add	a3,a3,a1
20005440:	00068067          	jr	a3
20005444:	00072783          	lw	a5,0(a4)
20005448:	04240913          	addi	s2,s0,66
2000544c:	00478693          	addi	a3,a5,4
20005450:	0007a783          	lw	a5,0(a5)
20005454:	00d72023          	sw	a3,0(a4)
20005458:	04f40123          	sb	a5,66(s0)
2000545c:	00100793          	li	a5,1
20005460:	2640006f          	j	200056c4 <_printf_i+0x310>
20005464:	00042783          	lw	a5,0(s0)
20005468:	00072503          	lw	a0,0(a4)
2000546c:	0807f693          	andi	a3,a5,128
20005470:	00450593          	addi	a1,a0,4
20005474:	02068663          	beqz	a3,200054a0 <_printf_i+0xec>
20005478:	00052783          	lw	a5,0(a0)
2000547c:	00b72023          	sw	a1,0(a4)
20005480:	0007d863          	bgez	a5,20005490 <_printf_i+0xdc>
20005484:	02d00713          	li	a4,45
20005488:	40f007b3          	neg	a5,a5
2000548c:	04e401a3          	sb	a4,67(s0)
20005490:	00002697          	auipc	a3,0x2
20005494:	81068693          	addi	a3,a3,-2032 # 20006ca0 <__clz_tab+0x114>
20005498:	00a00713          	li	a4,10
2000549c:	0680006f          	j	20005504 <_printf_i+0x150>
200054a0:	0407f693          	andi	a3,a5,64
200054a4:	00052783          	lw	a5,0(a0)
200054a8:	00b72023          	sw	a1,0(a4)
200054ac:	fc068ae3          	beqz	a3,20005480 <_printf_i+0xcc>
200054b0:	01079793          	slli	a5,a5,0x10
200054b4:	4107d793          	srai	a5,a5,0x10
200054b8:	fc9ff06f          	j	20005480 <_printf_i+0xcc>
200054bc:	00042583          	lw	a1,0(s0)
200054c0:	00072683          	lw	a3,0(a4)
200054c4:	0805f513          	andi	a0,a1,128
200054c8:	0006a783          	lw	a5,0(a3)
200054cc:	00468693          	addi	a3,a3,4
200054d0:	00051a63          	bnez	a0,200054e4 <_printf_i+0x130>
200054d4:	0405f593          	andi	a1,a1,64
200054d8:	00058663          	beqz	a1,200054e4 <_printf_i+0x130>
200054dc:	01079793          	slli	a5,a5,0x10
200054e0:	0107d793          	srli	a5,a5,0x10
200054e4:	00d72023          	sw	a3,0(a4)
200054e8:	01844683          	lbu	a3,24(s0)
200054ec:	06f00713          	li	a4,111
200054f0:	14e69663          	bne	a3,a4,2000563c <_printf_i+0x288>
200054f4:	00001697          	auipc	a3,0x1
200054f8:	7ac68693          	addi	a3,a3,1964 # 20006ca0 <__clz_tab+0x114>
200054fc:	00800713          	li	a4,8
20005500:	040401a3          	sb	zero,67(s0)
20005504:	00442583          	lw	a1,4(s0)
20005508:	00b42423          	sw	a1,8(s0)
2000550c:	0005ce63          	bltz	a1,20005528 <_printf_i+0x174>
20005510:	00042503          	lw	a0,0(s0)
20005514:	00b7e5b3          	or	a1,a5,a1
20005518:	00060913          	mv	s2,a2
2000551c:	ffb57513          	andi	a0,a0,-5
20005520:	00a42023          	sw	a0,0(s0)
20005524:	02058463          	beqz	a1,2000554c <_printf_i+0x198>
20005528:	00060913          	mv	s2,a2
2000552c:	02e7f5b3          	remu	a1,a5,a4
20005530:	fff90913          	addi	s2,s2,-1
20005534:	00b685b3          	add	a1,a3,a1
20005538:	0005c583          	lbu	a1,0(a1)
2000553c:	00b90023          	sb	a1,0(s2)
20005540:	00078593          	mv	a1,a5
20005544:	02e7d7b3          	divu	a5,a5,a4
20005548:	fee5f2e3          	bgeu	a1,a4,2000552c <_printf_i+0x178>
2000554c:	00800793          	li	a5,8
20005550:	02f71463          	bne	a4,a5,20005578 <_printf_i+0x1c4>
20005554:	00042783          	lw	a5,0(s0)
20005558:	0017f793          	andi	a5,a5,1
2000555c:	00078e63          	beqz	a5,20005578 <_printf_i+0x1c4>
20005560:	00442703          	lw	a4,4(s0)
20005564:	01042783          	lw	a5,16(s0)
20005568:	00e7c863          	blt	a5,a4,20005578 <_printf_i+0x1c4>
2000556c:	03000793          	li	a5,48
20005570:	fef90fa3          	sb	a5,-1(s2)
20005574:	fff90913          	addi	s2,s2,-1
20005578:	41260633          	sub	a2,a2,s2
2000557c:	00c42823          	sw	a2,16(s0)
20005580:	00048713          	mv	a4,s1
20005584:	000a8693          	mv	a3,s5
20005588:	01c10613          	addi	a2,sp,28
2000558c:	00040593          	mv	a1,s0
20005590:	000a0513          	mv	a0,s4
20005594:	c6dff0ef          	jal	20005200 <_printf_common>
20005598:	fff00993          	li	s3,-1
2000559c:	13351a63          	bne	a0,s3,200056d0 <_printf_i+0x31c>
200055a0:	fff00513          	li	a0,-1
200055a4:	03c12083          	lw	ra,60(sp)
200055a8:	03812403          	lw	s0,56(sp)
200055ac:	03412483          	lw	s1,52(sp)
200055b0:	03012903          	lw	s2,48(sp)
200055b4:	02c12983          	lw	s3,44(sp)
200055b8:	02812a03          	lw	s4,40(sp)
200055bc:	02412a83          	lw	s5,36(sp)
200055c0:	04010113          	addi	sp,sp,64
200055c4:	00008067          	ret
200055c8:	00042783          	lw	a5,0(s0)
200055cc:	0207e793          	ori	a5,a5,32
200055d0:	00f42023          	sw	a5,0(s0)
200055d4:	07800793          	li	a5,120
200055d8:	00001697          	auipc	a3,0x1
200055dc:	6dc68693          	addi	a3,a3,1756 # 20006cb4 <__clz_tab+0x128>
200055e0:	04f402a3          	sb	a5,69(s0)
200055e4:	00042583          	lw	a1,0(s0)
200055e8:	00072503          	lw	a0,0(a4)
200055ec:	0805f813          	andi	a6,a1,128
200055f0:	00052783          	lw	a5,0(a0)
200055f4:	00450513          	addi	a0,a0,4
200055f8:	00081a63          	bnez	a6,2000560c <_printf_i+0x258>
200055fc:	0405f813          	andi	a6,a1,64
20005600:	00080663          	beqz	a6,2000560c <_printf_i+0x258>
20005604:	01079793          	slli	a5,a5,0x10
20005608:	0107d793          	srli	a5,a5,0x10
2000560c:	00a72023          	sw	a0,0(a4)
20005610:	0015f713          	andi	a4,a1,1
20005614:	00070663          	beqz	a4,20005620 <_printf_i+0x26c>
20005618:	0205e593          	ori	a1,a1,32
2000561c:	00b42023          	sw	a1,0(s0)
20005620:	00078663          	beqz	a5,2000562c <_printf_i+0x278>
20005624:	01000713          	li	a4,16
20005628:	ed9ff06f          	j	20005500 <_printf_i+0x14c>
2000562c:	00042703          	lw	a4,0(s0)
20005630:	fdf77713          	andi	a4,a4,-33
20005634:	00e42023          	sw	a4,0(s0)
20005638:	fedff06f          	j	20005624 <_printf_i+0x270>
2000563c:	00001697          	auipc	a3,0x1
20005640:	66468693          	addi	a3,a3,1636 # 20006ca0 <__clz_tab+0x114>
20005644:	00a00713          	li	a4,10
20005648:	eb9ff06f          	j	20005500 <_printf_i+0x14c>
2000564c:	00042683          	lw	a3,0(s0)
20005650:	00072783          	lw	a5,0(a4)
20005654:	01442583          	lw	a1,20(s0)
20005658:	0806f813          	andi	a6,a3,128
2000565c:	00478513          	addi	a0,a5,4
20005660:	00080a63          	beqz	a6,20005674 <_printf_i+0x2c0>
20005664:	00a72023          	sw	a0,0(a4)
20005668:	0007a783          	lw	a5,0(a5)
2000566c:	00b7a023          	sw	a1,0(a5)
20005670:	0180006f          	j	20005688 <_printf_i+0x2d4>
20005674:	00a72023          	sw	a0,0(a4)
20005678:	0406f693          	andi	a3,a3,64
2000567c:	0007a783          	lw	a5,0(a5)
20005680:	fe0686e3          	beqz	a3,2000566c <_printf_i+0x2b8>
20005684:	00b79023          	sh	a1,0(a5)
20005688:	00042823          	sw	zero,16(s0)
2000568c:	00060913          	mv	s2,a2
20005690:	ef1ff06f          	j	20005580 <_printf_i+0x1cc>
20005694:	00072783          	lw	a5,0(a4)
20005698:	00442603          	lw	a2,4(s0)
2000569c:	00000593          	li	a1,0
200056a0:	00478693          	addi	a3,a5,4
200056a4:	00d72023          	sw	a3,0(a4)
200056a8:	0007a903          	lw	s2,0(a5)
200056ac:	00090513          	mv	a0,s2
200056b0:	7ad000ef          	jal	2000665c <memchr>
200056b4:	00050663          	beqz	a0,200056c0 <_printf_i+0x30c>
200056b8:	41250533          	sub	a0,a0,s2
200056bc:	00a42223          	sw	a0,4(s0)
200056c0:	00442783          	lw	a5,4(s0)
200056c4:	00f42823          	sw	a5,16(s0)
200056c8:	040401a3          	sb	zero,67(s0)
200056cc:	eb5ff06f          	j	20005580 <_printf_i+0x1cc>
200056d0:	01042683          	lw	a3,16(s0)
200056d4:	00090613          	mv	a2,s2
200056d8:	000a8593          	mv	a1,s5
200056dc:	000a0513          	mv	a0,s4
200056e0:	000480e7          	jalr	s1
200056e4:	eb350ee3          	beq	a0,s3,200055a0 <_printf_i+0x1ec>
200056e8:	00042783          	lw	a5,0(s0)
200056ec:	0027f793          	andi	a5,a5,2
200056f0:	04079663          	bnez	a5,2000573c <_printf_i+0x388>
200056f4:	01c12783          	lw	a5,28(sp)
200056f8:	00c42503          	lw	a0,12(s0)
200056fc:	eaf554e3          	bge	a0,a5,200055a4 <_printf_i+0x1f0>
20005700:	00078513          	mv	a0,a5
20005704:	ea1ff06f          	j	200055a4 <_printf_i+0x1f0>
20005708:	00100693          	li	a3,1
2000570c:	000a8593          	mv	a1,s5
20005710:	000a0513          	mv	a0,s4
20005714:	00c12623          	sw	a2,12(sp)
20005718:	000480e7          	jalr	s1
2000571c:	e93502e3          	beq	a0,s3,200055a0 <_printf_i+0x1ec>
20005720:	00c12603          	lw	a2,12(sp)
20005724:	00190913          	addi	s2,s2,1
20005728:	00c42783          	lw	a5,12(s0)
2000572c:	01c12703          	lw	a4,28(sp)
20005730:	40e787b3          	sub	a5,a5,a4
20005734:	fcf94ae3          	blt	s2,a5,20005708 <_printf_i+0x354>
20005738:	fbdff06f          	j	200056f4 <_printf_i+0x340>
2000573c:	00000913          	li	s2,0
20005740:	01940613          	addi	a2,s0,25
20005744:	fe5ff06f          	j	20005728 <_printf_i+0x374>

20005748 <__sflush_r>:
20005748:	00c59783          	lh	a5,12(a1)
2000574c:	fe010113          	addi	sp,sp,-32
20005750:	00812c23          	sw	s0,24(sp)
20005754:	00912a23          	sw	s1,20(sp)
20005758:	00112e23          	sw	ra,28(sp)
2000575c:	01212823          	sw	s2,16(sp)
20005760:	0087f713          	andi	a4,a5,8
20005764:	00050493          	mv	s1,a0
20005768:	00058413          	mv	s0,a1
2000576c:	12071263          	bnez	a4,20005890 <__sflush_r+0x148>
20005770:	0045a703          	lw	a4,4(a1)
20005774:	00e04663          	bgtz	a4,20005780 <__sflush_r+0x38>
20005778:	0405a703          	lw	a4,64(a1)
2000577c:	10e05663          	blez	a4,20005888 <__sflush_r+0x140>
20005780:	02c42703          	lw	a4,44(s0)
20005784:	10070263          	beqz	a4,20005888 <__sflush_r+0x140>
20005788:	0004a903          	lw	s2,0(s1)
2000578c:	01379693          	slli	a3,a5,0x13
20005790:	0004a023          	sw	zero,0(s1)
20005794:	0a06dc63          	bgez	a3,2000584c <__sflush_r+0x104>
20005798:	05442603          	lw	a2,84(s0)
2000579c:	00c45783          	lhu	a5,12(s0)
200057a0:	0047f793          	andi	a5,a5,4
200057a4:	00078e63          	beqz	a5,200057c0 <__sflush_r+0x78>
200057a8:	00442783          	lw	a5,4(s0)
200057ac:	40f60633          	sub	a2,a2,a5
200057b0:	03442783          	lw	a5,52(s0)
200057b4:	00078663          	beqz	a5,200057c0 <__sflush_r+0x78>
200057b8:	04042783          	lw	a5,64(s0)
200057bc:	40f60633          	sub	a2,a2,a5
200057c0:	02c42783          	lw	a5,44(s0)
200057c4:	02042583          	lw	a1,32(s0)
200057c8:	00000693          	li	a3,0
200057cc:	00048513          	mv	a0,s1
200057d0:	000780e7          	jalr	a5
200057d4:	fff00713          	li	a4,-1
200057d8:	00c41783          	lh	a5,12(s0)
200057dc:	02e51263          	bne	a0,a4,20005800 <__sflush_r+0xb8>
200057e0:	0004a683          	lw	a3,0(s1)
200057e4:	01d00713          	li	a4,29
200057e8:	0ed76c63          	bltu	a4,a3,200058e0 <__sflush_r+0x198>
200057ec:	20400737          	lui	a4,0x20400
200057f0:	00170713          	addi	a4,a4,1 # 20400001 <__stack_top+0x3f84c5>
200057f4:	00d75733          	srl	a4,a4,a3
200057f8:	00177713          	andi	a4,a4,1
200057fc:	0e070263          	beqz	a4,200058e0 <__sflush_r+0x198>
20005800:	01042703          	lw	a4,16(s0)
20005804:	00042223          	sw	zero,4(s0)
20005808:	00e42023          	sw	a4,0(s0)
2000580c:	01379713          	slli	a4,a5,0x13
20005810:	00075c63          	bgez	a4,20005828 <__sflush_r+0xe0>
20005814:	fff00793          	li	a5,-1
20005818:	00f51663          	bne	a0,a5,20005824 <__sflush_r+0xdc>
2000581c:	0004a783          	lw	a5,0(s1)
20005820:	00079463          	bnez	a5,20005828 <__sflush_r+0xe0>
20005824:	04a42a23          	sw	a0,84(s0)
20005828:	03442583          	lw	a1,52(s0)
2000582c:	0124a023          	sw	s2,0(s1)
20005830:	04058c63          	beqz	a1,20005888 <__sflush_r+0x140>
20005834:	04440793          	addi	a5,s0,68
20005838:	00f58663          	beq	a1,a5,20005844 <__sflush_r+0xfc>
2000583c:	00048513          	mv	a0,s1
20005840:	9bcff0ef          	jal	200049fc <_free_r>
20005844:	02042a23          	sw	zero,52(s0)
20005848:	0400006f          	j	20005888 <__sflush_r+0x140>
2000584c:	02042583          	lw	a1,32(s0)
20005850:	00000613          	li	a2,0
20005854:	00100693          	li	a3,1
20005858:	00048513          	mv	a0,s1
2000585c:	000700e7          	jalr	a4
20005860:	fff00793          	li	a5,-1
20005864:	00050613          	mv	a2,a0
20005868:	f2f51ae3          	bne	a0,a5,2000579c <__sflush_r+0x54>
2000586c:	0004a783          	lw	a5,0(s1)
20005870:	f20786e3          	beqz	a5,2000579c <__sflush_r+0x54>
20005874:	fe378713          	addi	a4,a5,-29
20005878:	00070663          	beqz	a4,20005884 <__sflush_r+0x13c>
2000587c:	fea78793          	addi	a5,a5,-22
20005880:	04079e63          	bnez	a5,200058dc <__sflush_r+0x194>
20005884:	0124a023          	sw	s2,0(s1)
20005888:	00000513          	li	a0,0
2000588c:	0600006f          	j	200058ec <__sflush_r+0x1a4>
20005890:	0105a603          	lw	a2,16(a1)
20005894:	fe060ae3          	beqz	a2,20005888 <__sflush_r+0x140>
20005898:	0005a683          	lw	a3,0(a1)
2000589c:	0037f793          	andi	a5,a5,3
200058a0:	00c5a023          	sw	a2,0(a1)
200058a4:	40c68933          	sub	s2,a3,a2
200058a8:	00000713          	li	a4,0
200058ac:	00079463          	bnez	a5,200058b4 <__sflush_r+0x16c>
200058b0:	0145a703          	lw	a4,20(a1)
200058b4:	00e42423          	sw	a4,8(s0)
200058b8:	fd2058e3          	blez	s2,20005888 <__sflush_r+0x140>
200058bc:	02842783          	lw	a5,40(s0)
200058c0:	02042583          	lw	a1,32(s0)
200058c4:	00090693          	mv	a3,s2
200058c8:	00048513          	mv	a0,s1
200058cc:	00c12623          	sw	a2,12(sp)
200058d0:	000780e7          	jalr	a5
200058d4:	00c12603          	lw	a2,12(sp)
200058d8:	02a04663          	bgtz	a0,20005904 <__sflush_r+0x1bc>
200058dc:	00c45783          	lhu	a5,12(s0)
200058e0:	0407e793          	ori	a5,a5,64
200058e4:	00f41623          	sh	a5,12(s0)
200058e8:	fff00513          	li	a0,-1
200058ec:	01c12083          	lw	ra,28(sp)
200058f0:	01812403          	lw	s0,24(sp)
200058f4:	01412483          	lw	s1,20(sp)
200058f8:	01012903          	lw	s2,16(sp)
200058fc:	02010113          	addi	sp,sp,32
20005900:	00008067          	ret
20005904:	00a60633          	add	a2,a2,a0
20005908:	40a90933          	sub	s2,s2,a0
2000590c:	fadff06f          	j	200058b8 <__sflush_r+0x170>

20005910 <_fflush_r>:
20005910:	0105a783          	lw	a5,16(a1)
20005914:	04078e63          	beqz	a5,20005970 <_fflush_r+0x60>
20005918:	fe010113          	addi	sp,sp,-32
2000591c:	00812c23          	sw	s0,24(sp)
20005920:	00112e23          	sw	ra,28(sp)
20005924:	00050413          	mv	s0,a0
20005928:	00050c63          	beqz	a0,20005940 <_fflush_r+0x30>
2000592c:	02052783          	lw	a5,32(a0)
20005930:	00079863          	bnez	a5,20005940 <_fflush_r+0x30>
20005934:	00b12623          	sw	a1,12(sp)
20005938:	2fc000ef          	jal	20005c34 <__sinit>
2000593c:	00c12583          	lw	a1,12(sp)
20005940:	00c59783          	lh	a5,12(a1)
20005944:	00078c63          	beqz	a5,2000595c <_fflush_r+0x4c>
20005948:	00040513          	mv	a0,s0
2000594c:	01812403          	lw	s0,24(sp)
20005950:	01c12083          	lw	ra,28(sp)
20005954:	02010113          	addi	sp,sp,32
20005958:	df1ff06f          	j	20005748 <__sflush_r>
2000595c:	01c12083          	lw	ra,28(sp)
20005960:	01812403          	lw	s0,24(sp)
20005964:	00000513          	li	a0,0
20005968:	02010113          	addi	sp,sp,32
2000596c:	00008067          	ret
20005970:	00000513          	li	a0,0
20005974:	00008067          	ret

20005978 <fflush>:
20005978:	00050593          	mv	a1,a0
2000597c:	02051063          	bnez	a0,2000599c <fflush+0x24>
20005980:	00001617          	auipc	a2,0x1
20005984:	42860613          	addi	a2,a2,1064 # 20006da8 <__sglue>
20005988:	00000597          	auipc	a1,0x0
2000598c:	f8858593          	addi	a1,a1,-120 # 20005910 <_fflush_r>
20005990:	00001517          	auipc	a0,0x1
20005994:	3cc50513          	addi	a0,a0,972 # 20006d5c <_impure_data>
20005998:	75c0006f          	j	200060f4 <_fwalk_sglue>
2000599c:	00001517          	auipc	a0,0x1
200059a0:	42452503          	lw	a0,1060(a0) # 20006dc0 <_impure_ptr>
200059a4:	f6dff06f          	j	20005910 <_fflush_r>

200059a8 <__fp_lock>:
200059a8:	00000513          	li	a0,0
200059ac:	00008067          	ret

200059b0 <std>:
200059b0:	ff010113          	addi	sp,sp,-16
200059b4:	00812423          	sw	s0,8(sp)
200059b8:	00112623          	sw	ra,12(sp)
200059bc:	00050413          	mv	s0,a0
200059c0:	00b51623          	sh	a1,12(a0)
200059c4:	00c51723          	sh	a2,14(a0)
200059c8:	00052023          	sw	zero,0(a0)
200059cc:	00052223          	sw	zero,4(a0)
200059d0:	00052423          	sw	zero,8(a0)
200059d4:	06052223          	sw	zero,100(a0)
200059d8:	00052823          	sw	zero,16(a0)
200059dc:	00052a23          	sw	zero,20(a0)
200059e0:	00052c23          	sw	zero,24(a0)
200059e4:	00800613          	li	a2,8
200059e8:	00000593          	li	a1,0
200059ec:	05c50513          	addi	a0,a0,92
200059f0:	05c010ef          	jal	20006a4c <memset>
200059f4:	00001797          	auipc	a5,0x1
200059f8:	90078793          	addi	a5,a5,-1792 # 200062f4 <__sread>
200059fc:	02f42223          	sw	a5,36(s0)
20005a00:	00001797          	auipc	a5,0x1
20005a04:	94c78793          	addi	a5,a5,-1716 # 2000634c <__swrite>
20005a08:	02f42423          	sw	a5,40(s0)
20005a0c:	00001797          	auipc	a5,0x1
20005a10:	9c478793          	addi	a5,a5,-1596 # 200063d0 <__sseek>
20005a14:	02f42623          	sw	a5,44(s0)
20005a18:	00001797          	auipc	a5,0x1
20005a1c:	a1078793          	addi	a5,a5,-1520 # 20006428 <__sclose>
20005a20:	00c12083          	lw	ra,12(sp)
20005a24:	02842023          	sw	s0,32(s0)
20005a28:	02f42823          	sw	a5,48(s0)
20005a2c:	00812403          	lw	s0,8(sp)
20005a30:	01010113          	addi	sp,sp,16
20005a34:	00008067          	ret

20005a38 <stdio_exit_handler>:
20005a38:	00001617          	auipc	a2,0x1
20005a3c:	37060613          	addi	a2,a2,880 # 20006da8 <__sglue>
20005a40:	00000597          	auipc	a1,0x0
20005a44:	ed058593          	addi	a1,a1,-304 # 20005910 <_fflush_r>
20005a48:	00001517          	auipc	a0,0x1
20005a4c:	31450513          	addi	a0,a0,788 # 20006d5c <_impure_data>
20005a50:	6a40006f          	j	200060f4 <_fwalk_sglue>

20005a54 <cleanup_stdio>:
20005a54:	00452583          	lw	a1,4(a0)
20005a58:	ff010113          	addi	sp,sp,-16
20005a5c:	00812423          	sw	s0,8(sp)
20005a60:	00112623          	sw	ra,12(sp)
20005a64:	00001797          	auipc	a5,0x1
20005a68:	39078793          	addi	a5,a5,912 # 20006df4 <__sf>
20005a6c:	00050413          	mv	s0,a0
20005a70:	00f58463          	beq	a1,a5,20005a78 <cleanup_stdio+0x24>
20005a74:	e9dff0ef          	jal	20005910 <_fflush_r>
20005a78:	00842583          	lw	a1,8(s0)
20005a7c:	00001797          	auipc	a5,0x1
20005a80:	3e078793          	addi	a5,a5,992 # 20006e5c <__sf+0x68>
20005a84:	00f58663          	beq	a1,a5,20005a90 <cleanup_stdio+0x3c>
20005a88:	00040513          	mv	a0,s0
20005a8c:	e85ff0ef          	jal	20005910 <_fflush_r>
20005a90:	00c42583          	lw	a1,12(s0)
20005a94:	00001797          	auipc	a5,0x1
20005a98:	43078793          	addi	a5,a5,1072 # 20006ec4 <__sf+0xd0>
20005a9c:	00f58c63          	beq	a1,a5,20005ab4 <cleanup_stdio+0x60>
20005aa0:	00040513          	mv	a0,s0
20005aa4:	00812403          	lw	s0,8(sp)
20005aa8:	00c12083          	lw	ra,12(sp)
20005aac:	01010113          	addi	sp,sp,16
20005ab0:	e61ff06f          	j	20005910 <_fflush_r>
20005ab4:	00c12083          	lw	ra,12(sp)
20005ab8:	00812403          	lw	s0,8(sp)
20005abc:	01010113          	addi	sp,sp,16
20005ac0:	00008067          	ret

20005ac4 <global_stdio_init.part.0>:
20005ac4:	ff010113          	addi	sp,sp,-16
20005ac8:	00000797          	auipc	a5,0x0
20005acc:	f7078793          	addi	a5,a5,-144 # 20005a38 <stdio_exit_handler>
20005ad0:	00000613          	li	a2,0
20005ad4:	00400593          	li	a1,4
20005ad8:	00001517          	auipc	a0,0x1
20005adc:	31c50513          	addi	a0,a0,796 # 20006df4 <__sf>
20005ae0:	00112623          	sw	ra,12(sp)
20005ae4:	00001717          	auipc	a4,0x1
20005ae8:	44f72823          	sw	a5,1104(a4) # 20006f34 <__stdio_exit_handler>
20005aec:	ec5ff0ef          	jal	200059b0 <std>
20005af0:	00100613          	li	a2,1
20005af4:	00900593          	li	a1,9
20005af8:	00001517          	auipc	a0,0x1
20005afc:	36450513          	addi	a0,a0,868 # 20006e5c <__sf+0x68>
20005b00:	eb1ff0ef          	jal	200059b0 <std>
20005b04:	00c12083          	lw	ra,12(sp)
20005b08:	00200613          	li	a2,2
20005b0c:	01200593          	li	a1,18
20005b10:	00001517          	auipc	a0,0x1
20005b14:	3b450513          	addi	a0,a0,948 # 20006ec4 <__sf+0xd0>
20005b18:	01010113          	addi	sp,sp,16
20005b1c:	e95ff06f          	j	200059b0 <std>

20005b20 <__fp_unlock>:
20005b20:	00000513          	li	a0,0
20005b24:	00008067          	ret

20005b28 <__sfp>:
20005b28:	00001797          	auipc	a5,0x1
20005b2c:	40c7a783          	lw	a5,1036(a5) # 20006f34 <__stdio_exit_handler>
20005b30:	ff010113          	addi	sp,sp,-16
20005b34:	01212023          	sw	s2,0(sp)
20005b38:	00112623          	sw	ra,12(sp)
20005b3c:	00812423          	sw	s0,8(sp)
20005b40:	00912223          	sw	s1,4(sp)
20005b44:	00050913          	mv	s2,a0
20005b48:	00079463          	bnez	a5,20005b50 <__sfp+0x28>
20005b4c:	f79ff0ef          	jal	20005ac4 <global_stdio_init.part.0>
20005b50:	00001497          	auipc	s1,0x1
20005b54:	25848493          	addi	s1,s1,600 # 20006da8 <__sglue>
20005b58:	0084a403          	lw	s0,8(s1)
20005b5c:	0044a783          	lw	a5,4(s1)
20005b60:	fff78793          	addi	a5,a5,-1
20005b64:	0207d863          	bgez	a5,20005b94 <__sfp+0x6c>
20005b68:	0004a403          	lw	s0,0(s1)
20005b6c:	0c041063          	bnez	s0,20005c2c <__sfp+0x104>
20005b70:	1ac00593          	li	a1,428
20005b74:	00090513          	mv	a0,s2
20005b78:	830ff0ef          	jal	20004ba8 <_malloc_r>
20005b7c:	00050413          	mv	s0,a0
20005b80:	08051463          	bnez	a0,20005c08 <__sfp+0xe0>
20005b84:	0004a023          	sw	zero,0(s1)
20005b88:	00c00793          	li	a5,12
20005b8c:	00f92023          	sw	a5,0(s2)
20005b90:	0540006f          	j	20005be4 <__sfp+0xbc>
20005b94:	00c41703          	lh	a4,12(s0)
20005b98:	06071463          	bnez	a4,20005c00 <__sfp+0xd8>
20005b9c:	ffff07b7          	lui	a5,0xffff0
20005ba0:	00178793          	addi	a5,a5,1 # ffff0001 <__stack_top+0xdffe84c5>
20005ba4:	06042223          	sw	zero,100(s0)
20005ba8:	00042023          	sw	zero,0(s0)
20005bac:	00042223          	sw	zero,4(s0)
20005bb0:	00042423          	sw	zero,8(s0)
20005bb4:	00f42623          	sw	a5,12(s0)
20005bb8:	00042823          	sw	zero,16(s0)
20005bbc:	00042a23          	sw	zero,20(s0)
20005bc0:	00042c23          	sw	zero,24(s0)
20005bc4:	00800613          	li	a2,8
20005bc8:	00000593          	li	a1,0
20005bcc:	05c40513          	addi	a0,s0,92
20005bd0:	67d000ef          	jal	20006a4c <memset>
20005bd4:	02042a23          	sw	zero,52(s0)
20005bd8:	02042c23          	sw	zero,56(s0)
20005bdc:	04042423          	sw	zero,72(s0)
20005be0:	04042623          	sw	zero,76(s0)
20005be4:	00c12083          	lw	ra,12(sp)
20005be8:	00040513          	mv	a0,s0
20005bec:	00812403          	lw	s0,8(sp)
20005bf0:	00412483          	lw	s1,4(sp)
20005bf4:	00012903          	lw	s2,0(sp)
20005bf8:	01010113          	addi	sp,sp,16
20005bfc:	00008067          	ret
20005c00:	06840413          	addi	s0,s0,104
20005c04:	f5dff06f          	j	20005b60 <__sfp+0x38>
20005c08:	00400793          	li	a5,4
20005c0c:	00052023          	sw	zero,0(a0)
20005c10:	00f52223          	sw	a5,4(a0)
20005c14:	00c50513          	addi	a0,a0,12
20005c18:	00a42423          	sw	a0,8(s0)
20005c1c:	1a000613          	li	a2,416
20005c20:	00000593          	li	a1,0
20005c24:	629000ef          	jal	20006a4c <memset>
20005c28:	0084a023          	sw	s0,0(s1)
20005c2c:	00040493          	mv	s1,s0
20005c30:	f29ff06f          	j	20005b58 <__sfp+0x30>

20005c34 <__sinit>:
20005c34:	02052783          	lw	a5,32(a0)
20005c38:	02079063          	bnez	a5,20005c58 <__sinit+0x24>
20005c3c:	00000797          	auipc	a5,0x0
20005c40:	e1878793          	addi	a5,a5,-488 # 20005a54 <cleanup_stdio>
20005c44:	02f52023          	sw	a5,32(a0)
20005c48:	00001797          	auipc	a5,0x1
20005c4c:	2ec7a783          	lw	a5,748(a5) # 20006f34 <__stdio_exit_handler>
20005c50:	00079463          	bnez	a5,20005c58 <__sinit+0x24>
20005c54:	e71ff06f          	j	20005ac4 <global_stdio_init.part.0>
20005c58:	00008067          	ret

20005c5c <__sfp_lock_acquire>:
20005c5c:	00008067          	ret

20005c60 <__sfp_lock_release>:
20005c60:	00008067          	ret

20005c64 <__fp_lock_all>:
20005c64:	00001617          	auipc	a2,0x1
20005c68:	14460613          	addi	a2,a2,324 # 20006da8 <__sglue>
20005c6c:	00000597          	auipc	a1,0x0
20005c70:	d3c58593          	addi	a1,a1,-708 # 200059a8 <__fp_lock>
20005c74:	00000513          	li	a0,0
20005c78:	47c0006f          	j	200060f4 <_fwalk_sglue>

20005c7c <__fp_unlock_all>:
20005c7c:	00001617          	auipc	a2,0x1
20005c80:	12c60613          	addi	a2,a2,300 # 20006da8 <__sglue>
20005c84:	00000597          	auipc	a1,0x0
20005c88:	e9c58593          	addi	a1,a1,-356 # 20005b20 <__fp_unlock>
20005c8c:	00000513          	li	a0,0
20005c90:	4640006f          	j	200060f4 <_fwalk_sglue>

20005c94 <__sfvwrite_r>:
20005c94:	00862783          	lw	a5,8(a2)
20005c98:	04079663          	bnez	a5,20005ce4 <__sfvwrite_r+0x50>
20005c9c:	00000513          	li	a0,0
20005ca0:	00008067          	ret
20005ca4:	00000513          	li	a0,0
20005ca8:	03c12083          	lw	ra,60(sp)
20005cac:	03812403          	lw	s0,56(sp)
20005cb0:	03412483          	lw	s1,52(sp)
20005cb4:	03012903          	lw	s2,48(sp)
20005cb8:	02c12983          	lw	s3,44(sp)
20005cbc:	02812a03          	lw	s4,40(sp)
20005cc0:	02412a83          	lw	s5,36(sp)
20005cc4:	02012b03          	lw	s6,32(sp)
20005cc8:	01c12b83          	lw	s7,28(sp)
20005ccc:	01812c03          	lw	s8,24(sp)
20005cd0:	01412c83          	lw	s9,20(sp)
20005cd4:	01012d03          	lw	s10,16(sp)
20005cd8:	00c12d83          	lw	s11,12(sp)
20005cdc:	04010113          	addi	sp,sp,64
20005ce0:	00008067          	ret
20005ce4:	00c5d783          	lhu	a5,12(a1)
20005ce8:	fc010113          	addi	sp,sp,-64
20005cec:	02812c23          	sw	s0,56(sp)
20005cf0:	03312623          	sw	s3,44(sp)
20005cf4:	03512223          	sw	s5,36(sp)
20005cf8:	02112e23          	sw	ra,60(sp)
20005cfc:	02912a23          	sw	s1,52(sp)
20005d00:	03212823          	sw	s2,48(sp)
20005d04:	03412423          	sw	s4,40(sp)
20005d08:	03612023          	sw	s6,32(sp)
20005d0c:	01712e23          	sw	s7,28(sp)
20005d10:	01812c23          	sw	s8,24(sp)
20005d14:	01912a23          	sw	s9,20(sp)
20005d18:	01a12823          	sw	s10,16(sp)
20005d1c:	01b12623          	sw	s11,12(sp)
20005d20:	0087f793          	andi	a5,a5,8
20005d24:	00060a93          	mv	s5,a2
20005d28:	00058413          	mv	s0,a1
20005d2c:	00050993          	mv	s3,a0
20005d30:	0e078263          	beqz	a5,20005e14 <__sfvwrite_r+0x180>
20005d34:	0105a783          	lw	a5,16(a1)
20005d38:	0c078e63          	beqz	a5,20005e14 <__sfvwrite_r+0x180>
20005d3c:	00c41783          	lh	a5,12(s0)
20005d40:	000aaa03          	lw	s4,0(s5)
20005d44:	0027f713          	andi	a4,a5,2
20005d48:	12071c63          	bnez	a4,20005e80 <__sfvwrite_r+0x1ec>
20005d4c:	0017f793          	andi	a5,a5,1
20005d50:	1c078c63          	beqz	a5,20005f28 <__sfvwrite_r+0x294>
20005d54:	00000b93          	li	s7,0
20005d58:	00000513          	li	a0,0
20005d5c:	00000b13          	li	s6,0
20005d60:	00000913          	li	s2,0
20005d64:	32090663          	beqz	s2,20006090 <__sfvwrite_r+0x3fc>
20005d68:	02051263          	bnez	a0,20005d8c <__sfvwrite_r+0xf8>
20005d6c:	00090613          	mv	a2,s2
20005d70:	00a00593          	li	a1,10
20005d74:	000b0513          	mv	a0,s6
20005d78:	0e5000ef          	jal	2000665c <memchr>
20005d7c:	00190b93          	addi	s7,s2,1
20005d80:	00050663          	beqz	a0,20005d8c <__sfvwrite_r+0xf8>
20005d84:	00150513          	addi	a0,a0,1
20005d88:	41650bb3          	sub	s7,a0,s6
20005d8c:	000b8c13          	mv	s8,s7
20005d90:	01797463          	bgeu	s2,s7,20005d98 <__sfvwrite_r+0x104>
20005d94:	00090c13          	mv	s8,s2
20005d98:	01442683          	lw	a3,20(s0)
20005d9c:	00842483          	lw	s1,8(s0)
20005da0:	00042503          	lw	a0,0(s0)
20005da4:	01042783          	lw	a5,16(s0)
20005da8:	009684b3          	add	s1,a3,s1
20005dac:	2ea7fc63          	bgeu	a5,a0,200060a4 <__sfvwrite_r+0x410>
20005db0:	2f84da63          	bge	s1,s8,200060a4 <__sfvwrite_r+0x410>
20005db4:	000b0593          	mv	a1,s6
20005db8:	00048613          	mv	a2,s1
20005dbc:	455000ef          	jal	20006a10 <memmove>
20005dc0:	00042783          	lw	a5,0(s0)
20005dc4:	00040593          	mv	a1,s0
20005dc8:	00098513          	mv	a0,s3
20005dcc:	009787b3          	add	a5,a5,s1
20005dd0:	00f42023          	sw	a5,0(s0)
20005dd4:	b3dff0ef          	jal	20005910 <_fflush_r>
20005dd8:	14051063          	bnez	a0,20005f18 <__sfvwrite_r+0x284>
20005ddc:	409b8bb3          	sub	s7,s7,s1
20005de0:	00100513          	li	a0,1
20005de4:	000b9a63          	bnez	s7,20005df8 <__sfvwrite_r+0x164>
20005de8:	00040593          	mv	a1,s0
20005dec:	00098513          	mv	a0,s3
20005df0:	b21ff0ef          	jal	20005910 <_fflush_r>
20005df4:	12051263          	bnez	a0,20005f18 <__sfvwrite_r+0x284>
20005df8:	008aa783          	lw	a5,8(s5)
20005dfc:	409787b3          	sub	a5,a5,s1
20005e00:	00faa423          	sw	a5,8(s5)
20005e04:	ea0780e3          	beqz	a5,20005ca4 <__sfvwrite_r+0x10>
20005e08:	009b0b33          	add	s6,s6,s1
20005e0c:	40990933          	sub	s2,s2,s1
20005e10:	f55ff06f          	j	20005d64 <__sfvwrite_r+0xd0>
20005e14:	00040593          	mv	a1,s0
20005e18:	00098513          	mv	a0,s3
20005e1c:	724000ef          	jal	20006540 <__swsetup_r>
20005e20:	f0050ee3          	beqz	a0,20005d3c <__sfvwrite_r+0xa8>
20005e24:	fff00513          	li	a0,-1
20005e28:	e81ff06f          	j	20005ca8 <__sfvwrite_r+0x14>
20005e2c:	000a2903          	lw	s2,0(s4)
20005e30:	004a2483          	lw	s1,4(s4)
20005e34:	008a0a13          	addi	s4,s4,8
20005e38:	fe048ae3          	beqz	s1,20005e2c <__sfvwrite_r+0x198>
20005e3c:	00048693          	mv	a3,s1
20005e40:	009b7663          	bgeu	s6,s1,20005e4c <__sfvwrite_r+0x1b8>
20005e44:	800006b7          	lui	a3,0x80000
20005e48:	c0068693          	addi	a3,a3,-1024 # 7ffffc00 <__stack_top+0x5fff80c4>
20005e4c:	02842783          	lw	a5,40(s0)
20005e50:	02042583          	lw	a1,32(s0)
20005e54:	00090613          	mv	a2,s2
20005e58:	00098513          	mv	a0,s3
20005e5c:	000780e7          	jalr	a5
20005e60:	0aa05c63          	blez	a0,20005f18 <__sfvwrite_r+0x284>
20005e64:	008aa783          	lw	a5,8(s5)
20005e68:	40a787b3          	sub	a5,a5,a0
20005e6c:	00faa423          	sw	a5,8(s5)
20005e70:	e2078ae3          	beqz	a5,20005ca4 <__sfvwrite_r+0x10>
20005e74:	00a90933          	add	s2,s2,a0
20005e78:	40a484b3          	sub	s1,s1,a0
20005e7c:	fbdff06f          	j	20005e38 <__sfvwrite_r+0x1a4>
20005e80:	80000b37          	lui	s6,0x80000
20005e84:	00000913          	li	s2,0
20005e88:	00000493          	li	s1,0
20005e8c:	c00b0b13          	addi	s6,s6,-1024 # 7ffffc00 <__stack_top+0x5fff80c4>
20005e90:	fa9ff06f          	j	20005e38 <__sfvwrite_r+0x1a4>
20005e94:	000a2b03          	lw	s6,0(s4)
20005e98:	004a2483          	lw	s1,4(s4)
20005e9c:	008a0a13          	addi	s4,s4,8
20005ea0:	fe048ae3          	beqz	s1,20005e94 <__sfvwrite_r+0x200>
20005ea4:	00c41783          	lh	a5,12(s0)
20005ea8:	00842d03          	lw	s10,8(s0)
20005eac:	00042503          	lw	a0,0(s0)
20005eb0:	2007f713          	andi	a4,a5,512
20005eb4:	14070863          	beqz	a4,20006004 <__sfvwrite_r+0x370>
20005eb8:	000d0d93          	mv	s11,s10
20005ebc:	13a4ec63          	bltu	s1,s10,20005ff4 <__sfvwrite_r+0x360>
20005ec0:	4807f713          	andi	a4,a5,1152
20005ec4:	12070c63          	beqz	a4,20005ffc <__sfvwrite_r+0x368>
20005ec8:	01442903          	lw	s2,20(s0)
20005ecc:	01042583          	lw	a1,16(s0)
20005ed0:	03890933          	mul	s2,s2,s8
20005ed4:	40b50db3          	sub	s11,a0,a1
20005ed8:	001d8713          	addi	a4,s11,1
20005edc:	00970733          	add	a4,a4,s1
20005ee0:	03994933          	div	s2,s2,s9
20005ee4:	00090613          	mv	a2,s2
20005ee8:	00e97663          	bgeu	s2,a4,20005ef4 <__sfvwrite_r+0x260>
20005eec:	00070913          	mv	s2,a4
20005ef0:	00070613          	mv	a2,a4
20005ef4:	4007f793          	andi	a5,a5,1024
20005ef8:	0c078863          	beqz	a5,20005fc8 <__sfvwrite_r+0x334>
20005efc:	00060593          	mv	a1,a2
20005f00:	00098513          	mv	a0,s3
20005f04:	ca5fe0ef          	jal	20004ba8 <_malloc_r>
20005f08:	00050d13          	mv	s10,a0
20005f0c:	02051c63          	bnez	a0,20005f44 <__sfvwrite_r+0x2b0>
20005f10:	00c00793          	li	a5,12
20005f14:	00f9a023          	sw	a5,0(s3)
20005f18:	00c45783          	lhu	a5,12(s0)
20005f1c:	0407e793          	ori	a5,a5,64
20005f20:	00f41623          	sh	a5,12(s0)
20005f24:	f01ff06f          	j	20005e24 <__sfvwrite_r+0x190>
20005f28:	80000bb7          	lui	s7,0x80000
20005f2c:	00000b13          	li	s6,0
20005f30:	00000493          	li	s1,0
20005f34:	fffb8b93          	addi	s7,s7,-1 # 7fffffff <__stack_top+0x5fff84c3>
20005f38:	00300c13          	li	s8,3
20005f3c:	00200c93          	li	s9,2
20005f40:	f61ff06f          	j	20005ea0 <__sfvwrite_r+0x20c>
20005f44:	01042583          	lw	a1,16(s0)
20005f48:	000d8613          	mv	a2,s11
20005f4c:	31d000ef          	jal	20006a68 <memcpy>
20005f50:	00c45783          	lhu	a5,12(s0)
20005f54:	b7f7f793          	andi	a5,a5,-1153
20005f58:	0807e793          	ori	a5,a5,128
20005f5c:	00f41623          	sh	a5,12(s0)
20005f60:	01a42823          	sw	s10,16(s0)
20005f64:	01242a23          	sw	s2,20(s0)
20005f68:	01bd0d33          	add	s10,s10,s11
20005f6c:	41b90933          	sub	s2,s2,s11
20005f70:	01a42023          	sw	s10,0(s0)
20005f74:	01242423          	sw	s2,8(s0)
20005f78:	00048d13          	mv	s10,s1
20005f7c:	00048913          	mv	s2,s1
20005f80:	00048d93          	mv	s11,s1
20005f84:	00042503          	lw	a0,0(s0)
20005f88:	000d8613          	mv	a2,s11
20005f8c:	000b0593          	mv	a1,s6
20005f90:	281000ef          	jal	20006a10 <memmove>
20005f94:	00842783          	lw	a5,8(s0)
20005f98:	41a787b3          	sub	a5,a5,s10
20005f9c:	00f42423          	sw	a5,8(s0)
20005fa0:	00042783          	lw	a5,0(s0)
20005fa4:	01b787b3          	add	a5,a5,s11
20005fa8:	00f42023          	sw	a5,0(s0)
20005fac:	008aa783          	lw	a5,8(s5)
20005fb0:	412787b3          	sub	a5,a5,s2
20005fb4:	00faa423          	sw	a5,8(s5)
20005fb8:	ce0786e3          	beqz	a5,20005ca4 <__sfvwrite_r+0x10>
20005fbc:	012b0b33          	add	s6,s6,s2
20005fc0:	412484b3          	sub	s1,s1,s2
20005fc4:	eddff06f          	j	20005ea0 <__sfvwrite_r+0x20c>
20005fc8:	00098513          	mv	a0,s3
20005fcc:	2c1000ef          	jal	20006a8c <_realloc_r>
20005fd0:	00050d13          	mv	s10,a0
20005fd4:	f80516e3          	bnez	a0,20005f60 <__sfvwrite_r+0x2cc>
20005fd8:	01042583          	lw	a1,16(s0)
20005fdc:	00098513          	mv	a0,s3
20005fe0:	a1dfe0ef          	jal	200049fc <_free_r>
20005fe4:	00c45783          	lhu	a5,12(s0)
20005fe8:	f7f7f793          	andi	a5,a5,-129
20005fec:	00f41623          	sh	a5,12(s0)
20005ff0:	f21ff06f          	j	20005f10 <__sfvwrite_r+0x27c>
20005ff4:	00048d13          	mv	s10,s1
20005ff8:	f85ff06f          	j	20005f7c <__sfvwrite_r+0x2e8>
20005ffc:	00048913          	mv	s2,s1
20006000:	f85ff06f          	j	20005f84 <__sfvwrite_r+0x2f0>
20006004:	01042783          	lw	a5,16(s0)
20006008:	00a7e663          	bltu	a5,a0,20006014 <__sfvwrite_r+0x380>
2000600c:	01442683          	lw	a3,20(s0)
20006010:	04d4f663          	bgeu	s1,a3,2000605c <__sfvwrite_r+0x3c8>
20006014:	000d0913          	mv	s2,s10
20006018:	01a4f463          	bgeu	s1,s10,20006020 <__sfvwrite_r+0x38c>
2000601c:	00048913          	mv	s2,s1
20006020:	00090613          	mv	a2,s2
20006024:	000b0593          	mv	a1,s6
20006028:	1e9000ef          	jal	20006a10 <memmove>
2000602c:	00842783          	lw	a5,8(s0)
20006030:	00042703          	lw	a4,0(s0)
20006034:	412787b3          	sub	a5,a5,s2
20006038:	01270733          	add	a4,a4,s2
2000603c:	00f42423          	sw	a5,8(s0)
20006040:	00e42023          	sw	a4,0(s0)
20006044:	f60794e3          	bnez	a5,20005fac <__sfvwrite_r+0x318>
20006048:	00040593          	mv	a1,s0
2000604c:	00098513          	mv	a0,s3
20006050:	8c1ff0ef          	jal	20005910 <_fflush_r>
20006054:	f4050ce3          	beqz	a0,20005fac <__sfvwrite_r+0x318>
20006058:	ec1ff06f          	j	20005f18 <__sfvwrite_r+0x284>
2000605c:	00048793          	mv	a5,s1
20006060:	009bf463          	bgeu	s7,s1,20006068 <__sfvwrite_r+0x3d4>
20006064:	000b8793          	mv	a5,s7
20006068:	02d7c7b3          	div	a5,a5,a3
2000606c:	02842703          	lw	a4,40(s0)
20006070:	02042583          	lw	a1,32(s0)
20006074:	000b0613          	mv	a2,s6
20006078:	00098513          	mv	a0,s3
2000607c:	02d786b3          	mul	a3,a5,a3
20006080:	000700e7          	jalr	a4
20006084:	00050913          	mv	s2,a0
20006088:	f2a042e3          	bgtz	a0,20005fac <__sfvwrite_r+0x318>
2000608c:	e8dff06f          	j	20005f18 <__sfvwrite_r+0x284>
20006090:	000a2b03          	lw	s6,0(s4)
20006094:	004a2903          	lw	s2,4(s4)
20006098:	00000513          	li	a0,0
2000609c:	008a0a13          	addi	s4,s4,8
200060a0:	cc5ff06f          	j	20005d64 <__sfvwrite_r+0xd0>
200060a4:	02dc4263          	blt	s8,a3,200060c8 <__sfvwrite_r+0x434>
200060a8:	02842783          	lw	a5,40(s0)
200060ac:	02042583          	lw	a1,32(s0)
200060b0:	000b0613          	mv	a2,s6
200060b4:	00098513          	mv	a0,s3
200060b8:	000780e7          	jalr	a5
200060bc:	00050493          	mv	s1,a0
200060c0:	d0a04ee3          	bgtz	a0,20005ddc <__sfvwrite_r+0x148>
200060c4:	e55ff06f          	j	20005f18 <__sfvwrite_r+0x284>
200060c8:	000c0613          	mv	a2,s8
200060cc:	000b0593          	mv	a1,s6
200060d0:	141000ef          	jal	20006a10 <memmove>
200060d4:	00842783          	lw	a5,8(s0)
200060d8:	000c0493          	mv	s1,s8
200060dc:	418787b3          	sub	a5,a5,s8
200060e0:	00f42423          	sw	a5,8(s0)
200060e4:	00042783          	lw	a5,0(s0)
200060e8:	018787b3          	add	a5,a5,s8
200060ec:	00f42023          	sw	a5,0(s0)
200060f0:	cedff06f          	j	20005ddc <__sfvwrite_r+0x148>

200060f4 <_fwalk_sglue>:
200060f4:	fd010113          	addi	sp,sp,-48
200060f8:	02812423          	sw	s0,40(sp)
200060fc:	03212023          	sw	s2,32(sp)
20006100:	01312e23          	sw	s3,28(sp)
20006104:	01412c23          	sw	s4,24(sp)
20006108:	01512a23          	sw	s5,20(sp)
2000610c:	02112623          	sw	ra,44(sp)
20006110:	02912223          	sw	s1,36(sp)
20006114:	00050a13          	mv	s4,a0
20006118:	00058a93          	mv	s5,a1
2000611c:	00000413          	li	s0,0
20006120:	00100913          	li	s2,1
20006124:	fff00993          	li	s3,-1
20006128:	00862583          	lw	a1,8(a2)
2000612c:	00462483          	lw	s1,4(a2)
20006130:	fff48493          	addi	s1,s1,-1
20006134:	0204da63          	bgez	s1,20006168 <_fwalk_sglue+0x74>
20006138:	00062603          	lw	a2,0(a2)
2000613c:	fe0616e3          	bnez	a2,20006128 <_fwalk_sglue+0x34>
20006140:	02c12083          	lw	ra,44(sp)
20006144:	00040513          	mv	a0,s0
20006148:	02812403          	lw	s0,40(sp)
2000614c:	02412483          	lw	s1,36(sp)
20006150:	02012903          	lw	s2,32(sp)
20006154:	01c12983          	lw	s3,28(sp)
20006158:	01812a03          	lw	s4,24(sp)
2000615c:	01412a83          	lw	s5,20(sp)
20006160:	03010113          	addi	sp,sp,48
20006164:	00008067          	ret
20006168:	00c5d783          	lhu	a5,12(a1)
2000616c:	02f97463          	bgeu	s2,a5,20006194 <_fwalk_sglue+0xa0>
20006170:	00e59783          	lh	a5,14(a1)
20006174:	03378063          	beq	a5,s3,20006194 <_fwalk_sglue+0xa0>
20006178:	000a0513          	mv	a0,s4
2000617c:	00c12623          	sw	a2,12(sp)
20006180:	00b12423          	sw	a1,8(sp)
20006184:	000a80e7          	jalr	s5
20006188:	00c12603          	lw	a2,12(sp)
2000618c:	00812583          	lw	a1,8(sp)
20006190:	00a46433          	or	s0,s0,a0
20006194:	06858593          	addi	a1,a1,104
20006198:	f99ff06f          	j	20006130 <_fwalk_sglue+0x3c>

2000619c <__swhatbuf_r>:
2000619c:	f8010113          	addi	sp,sp,-128
200061a0:	06812c23          	sw	s0,120(sp)
200061a4:	00058413          	mv	s0,a1
200061a8:	00e59583          	lh	a1,14(a1)
200061ac:	06912a23          	sw	s1,116(sp)
200061b0:	06112e23          	sw	ra,124(sp)
200061b4:	00060493          	mv	s1,a2
200061b8:	0205da63          	bgez	a1,200061ec <__swhatbuf_r+0x50>
200061bc:	00c45783          	lhu	a5,12(s0)
200061c0:	0807f793          	andi	a5,a5,128
200061c4:	04079c63          	bnez	a5,2000621c <__swhatbuf_r+0x80>
200061c8:	40000713          	li	a4,1024
200061cc:	07c12083          	lw	ra,124(sp)
200061d0:	07812403          	lw	s0,120(sp)
200061d4:	00f6a023          	sw	a5,0(a3)
200061d8:	00e4a023          	sw	a4,0(s1)
200061dc:	00000513          	li	a0,0
200061e0:	07412483          	lw	s1,116(sp)
200061e4:	08010113          	addi	sp,sp,128
200061e8:	00008067          	ret
200061ec:	01810613          	addi	a2,sp,24
200061f0:	00d12623          	sw	a3,12(sp)
200061f4:	650000ef          	jal	20006844 <_fstat_r>
200061f8:	00c12683          	lw	a3,12(sp)
200061fc:	fc0540e3          	bltz	a0,200061bc <__swhatbuf_r+0x20>
20006200:	01c12783          	lw	a5,28(sp)
20006204:	0000f737          	lui	a4,0xf
20006208:	00e7f7b3          	and	a5,a5,a4
2000620c:	ffffe737          	lui	a4,0xffffe
20006210:	00e787b3          	add	a5,a5,a4
20006214:	0017b793          	seqz	a5,a5
20006218:	fb1ff06f          	j	200061c8 <__swhatbuf_r+0x2c>
2000621c:	00000793          	li	a5,0
20006220:	04000713          	li	a4,64
20006224:	fa9ff06f          	j	200061cc <__swhatbuf_r+0x30>

20006228 <__smakebuf_r>:
20006228:	00c5d703          	lhu	a4,12(a1)
2000622c:	fd010113          	addi	sp,sp,-48
20006230:	02812423          	sw	s0,40(sp)
20006234:	02112623          	sw	ra,44(sp)
20006238:	02912223          	sw	s1,36(sp)
2000623c:	00277713          	andi	a4,a4,2
20006240:	00058413          	mv	s0,a1
20006244:	02070663          	beqz	a4,20006270 <__smakebuf_r+0x48>
20006248:	04740793          	addi	a5,s0,71
2000624c:	00f42023          	sw	a5,0(s0)
20006250:	00f42823          	sw	a5,16(s0)
20006254:	00100793          	li	a5,1
20006258:	00f42a23          	sw	a5,20(s0)
2000625c:	02c12083          	lw	ra,44(sp)
20006260:	02812403          	lw	s0,40(sp)
20006264:	02412483          	lw	s1,36(sp)
20006268:	03010113          	addi	sp,sp,48
2000626c:	00008067          	ret
20006270:	01c10693          	addi	a3,sp,28
20006274:	01810613          	addi	a2,sp,24
20006278:	00050493          	mv	s1,a0
2000627c:	f21ff0ef          	jal	2000619c <__swhatbuf_r>
20006280:	01812583          	lw	a1,24(sp)
20006284:	00048513          	mv	a0,s1
20006288:	00b12623          	sw	a1,12(sp)
2000628c:	91dfe0ef          	jal	20004ba8 <_malloc_r>
20006290:	00c41783          	lh	a5,12(s0)
20006294:	00c12583          	lw	a1,12(sp)
20006298:	00051e63          	bnez	a0,200062b4 <__smakebuf_r+0x8c>
2000629c:	2007f713          	andi	a4,a5,512
200062a0:	fa071ee3          	bnez	a4,2000625c <__smakebuf_r+0x34>
200062a4:	ffc7f793          	andi	a5,a5,-4
200062a8:	0027e793          	ori	a5,a5,2
200062ac:	00f41623          	sh	a5,12(s0)
200062b0:	f99ff06f          	j	20006248 <__smakebuf_r+0x20>
200062b4:	0807e793          	ori	a5,a5,128
200062b8:	00f41623          	sh	a5,12(s0)
200062bc:	01c12783          	lw	a5,28(sp)
200062c0:	00a42023          	sw	a0,0(s0)
200062c4:	00a42823          	sw	a0,16(s0)
200062c8:	00b42a23          	sw	a1,20(s0)
200062cc:	f80788e3          	beqz	a5,2000625c <__smakebuf_r+0x34>
200062d0:	00e41583          	lh	a1,14(s0)
200062d4:	00048513          	mv	a0,s1
200062d8:	5b8000ef          	jal	20006890 <_isatty_r>
200062dc:	f80500e3          	beqz	a0,2000625c <__smakebuf_r+0x34>
200062e0:	00c45783          	lhu	a5,12(s0)
200062e4:	ffc7f793          	andi	a5,a5,-4
200062e8:	0017e793          	ori	a5,a5,1
200062ec:	00f41623          	sh	a5,12(s0)
200062f0:	f6dff06f          	j	2000625c <__smakebuf_r+0x34>

200062f4 <__sread>:
200062f4:	ff010113          	addi	sp,sp,-16
200062f8:	00812423          	sw	s0,8(sp)
200062fc:	00058413          	mv	s0,a1
20006300:	00e59583          	lh	a1,14(a1)
20006304:	00112623          	sw	ra,12(sp)
20006308:	620000ef          	jal	20006928 <_read_r>
2000630c:	02054063          	bltz	a0,2000632c <__sread+0x38>
20006310:	05442783          	lw	a5,84(s0)
20006314:	00a787b3          	add	a5,a5,a0
20006318:	04f42a23          	sw	a5,84(s0)
2000631c:	00c12083          	lw	ra,12(sp)
20006320:	00812403          	lw	s0,8(sp)
20006324:	01010113          	addi	sp,sp,16
20006328:	00008067          	ret
2000632c:	00c45783          	lhu	a5,12(s0)
20006330:	fffff737          	lui	a4,0xfffff
20006334:	fff70713          	addi	a4,a4,-1 # ffffefff <__stack_top+0xdfff74c3>
20006338:	00e7f7b3          	and	a5,a5,a4
2000633c:	00f41623          	sh	a5,12(s0)
20006340:	fddff06f          	j	2000631c <__sread+0x28>

20006344 <__seofread>:
20006344:	00000513          	li	a0,0
20006348:	00008067          	ret

2000634c <__swrite>:
2000634c:	00c5d783          	lhu	a5,12(a1)
20006350:	fe010113          	addi	sp,sp,-32
20006354:	00812c23          	sw	s0,24(sp)
20006358:	00912a23          	sw	s1,20(sp)
2000635c:	01212823          	sw	s2,16(sp)
20006360:	01312623          	sw	s3,12(sp)
20006364:	00112e23          	sw	ra,28(sp)
20006368:	1007f793          	andi	a5,a5,256
2000636c:	00050493          	mv	s1,a0
20006370:	00058413          	mv	s0,a1
20006374:	00060913          	mv	s2,a2
20006378:	00068993          	mv	s3,a3
2000637c:	00078a63          	beqz	a5,20006390 <__swrite+0x44>
20006380:	00e59583          	lh	a1,14(a1)
20006384:	00200693          	li	a3,2
20006388:	00000613          	li	a2,0
2000638c:	54c000ef          	jal	200068d8 <_lseek_r>
20006390:	00c45783          	lhu	a5,12(s0)
20006394:	fffff737          	lui	a4,0xfffff
20006398:	fff70713          	addi	a4,a4,-1 # ffffefff <__stack_top+0xdfff74c3>
2000639c:	00e7f7b3          	and	a5,a5,a4
200063a0:	00e41583          	lh	a1,14(s0)
200063a4:	00f41623          	sh	a5,12(s0)
200063a8:	01812403          	lw	s0,24(sp)
200063ac:	01c12083          	lw	ra,28(sp)
200063b0:	00098693          	mv	a3,s3
200063b4:	00090613          	mv	a2,s2
200063b8:	00c12983          	lw	s3,12(sp)
200063bc:	01012903          	lw	s2,16(sp)
200063c0:	00048513          	mv	a0,s1
200063c4:	01412483          	lw	s1,20(sp)
200063c8:	02010113          	addi	sp,sp,32
200063cc:	5f40006f          	j	200069c0 <_write_r>

200063d0 <__sseek>:
200063d0:	ff010113          	addi	sp,sp,-16
200063d4:	00812423          	sw	s0,8(sp)
200063d8:	00058413          	mv	s0,a1
200063dc:	00e59583          	lh	a1,14(a1)
200063e0:	00112623          	sw	ra,12(sp)
200063e4:	4f4000ef          	jal	200068d8 <_lseek_r>
200063e8:	fff00713          	li	a4,-1
200063ec:	00c41783          	lh	a5,12(s0)
200063f0:	02e51263          	bne	a0,a4,20006414 <__sseek+0x44>
200063f4:	80050713          	addi	a4,a0,-2048
200063f8:	80070713          	addi	a4,a4,-2048
200063fc:	00e7f7b3          	and	a5,a5,a4
20006400:	00f41623          	sh	a5,12(s0)
20006404:	00c12083          	lw	ra,12(sp)
20006408:	00812403          	lw	s0,8(sp)
2000640c:	01010113          	addi	sp,sp,16
20006410:	00008067          	ret
20006414:	00001737          	lui	a4,0x1
20006418:	00e7e7b3          	or	a5,a5,a4
2000641c:	00f41623          	sh	a5,12(s0)
20006420:	04a42a23          	sw	a0,84(s0)
20006424:	fe1ff06f          	j	20006404 <__sseek+0x34>

20006428 <__sclose>:
20006428:	00e59583          	lh	a1,14(a1)
2000642c:	2540006f          	j	20006680 <_close_r>

20006430 <__swbuf_r>:
20006430:	fe010113          	addi	sp,sp,-32
20006434:	00812c23          	sw	s0,24(sp)
20006438:	00912a23          	sw	s1,20(sp)
2000643c:	01312623          	sw	s3,12(sp)
20006440:	00112e23          	sw	ra,28(sp)
20006444:	01212823          	sw	s2,16(sp)
20006448:	00050493          	mv	s1,a0
2000644c:	00058993          	mv	s3,a1
20006450:	00060413          	mv	s0,a2
20006454:	00050863          	beqz	a0,20006464 <__swbuf_r+0x34>
20006458:	02052783          	lw	a5,32(a0)
2000645c:	00079463          	bnez	a5,20006464 <__swbuf_r+0x34>
20006460:	fd4ff0ef          	jal	20005c34 <__sinit>
20006464:	01842783          	lw	a5,24(s0)
20006468:	00f42423          	sw	a5,8(s0)
2000646c:	00c45783          	lhu	a5,12(s0)
20006470:	0087f793          	andi	a5,a5,8
20006474:	00078663          	beqz	a5,20006480 <__swbuf_r+0x50>
20006478:	01042783          	lw	a5,16(s0)
2000647c:	02079c63          	bnez	a5,200064b4 <__swbuf_r+0x84>
20006480:	00040593          	mv	a1,s0
20006484:	00048513          	mv	a0,s1
20006488:	0b8000ef          	jal	20006540 <__swsetup_r>
2000648c:	02050463          	beqz	a0,200064b4 <__swbuf_r+0x84>
20006490:	fff00913          	li	s2,-1
20006494:	01c12083          	lw	ra,28(sp)
20006498:	01812403          	lw	s0,24(sp)
2000649c:	01412483          	lw	s1,20(sp)
200064a0:	00c12983          	lw	s3,12(sp)
200064a4:	00090513          	mv	a0,s2
200064a8:	01012903          	lw	s2,16(sp)
200064ac:	02010113          	addi	sp,sp,32
200064b0:	00008067          	ret
200064b4:	01042783          	lw	a5,16(s0)
200064b8:	00042503          	lw	a0,0(s0)
200064bc:	40f50533          	sub	a0,a0,a5
200064c0:	01442783          	lw	a5,20(s0)
200064c4:	00f54a63          	blt	a0,a5,200064d8 <__swbuf_r+0xa8>
200064c8:	00040593          	mv	a1,s0
200064cc:	00048513          	mv	a0,s1
200064d0:	c40ff0ef          	jal	20005910 <_fflush_r>
200064d4:	fa051ee3          	bnez	a0,20006490 <__swbuf_r+0x60>
200064d8:	00842783          	lw	a5,8(s0)
200064dc:	00150513          	addi	a0,a0,1
200064e0:	0ff9f913          	zext.b	s2,s3
200064e4:	fff78793          	addi	a5,a5,-1
200064e8:	00f42423          	sw	a5,8(s0)
200064ec:	00042783          	lw	a5,0(s0)
200064f0:	00178713          	addi	a4,a5,1
200064f4:	00e42023          	sw	a4,0(s0)
200064f8:	01378023          	sb	s3,0(a5)
200064fc:	01442783          	lw	a5,20(s0)
20006500:	00a78c63          	beq	a5,a0,20006518 <__swbuf_r+0xe8>
20006504:	00c45783          	lhu	a5,12(s0)
20006508:	0017f793          	andi	a5,a5,1
2000650c:	f80784e3          	beqz	a5,20006494 <__swbuf_r+0x64>
20006510:	ff690793          	addi	a5,s2,-10
20006514:	f80790e3          	bnez	a5,20006494 <__swbuf_r+0x64>
20006518:	00040593          	mv	a1,s0
2000651c:	00048513          	mv	a0,s1
20006520:	bf0ff0ef          	jal	20005910 <_fflush_r>
20006524:	f60508e3          	beqz	a0,20006494 <__swbuf_r+0x64>
20006528:	f69ff06f          	j	20006490 <__swbuf_r+0x60>

2000652c <__swbuf>:
2000652c:	00058613          	mv	a2,a1
20006530:	00050593          	mv	a1,a0
20006534:	00001517          	auipc	a0,0x1
20006538:	88c52503          	lw	a0,-1908(a0) # 20006dc0 <_impure_ptr>
2000653c:	ef5ff06f          	j	20006430 <__swbuf_r>

20006540 <__swsetup_r>:
20006540:	ff010113          	addi	sp,sp,-16
20006544:	00912223          	sw	s1,4(sp)
20006548:	00050493          	mv	s1,a0
2000654c:	00001517          	auipc	a0,0x1
20006550:	87452503          	lw	a0,-1932(a0) # 20006dc0 <_impure_ptr>
20006554:	00812423          	sw	s0,8(sp)
20006558:	00112623          	sw	ra,12(sp)
2000655c:	00058413          	mv	s0,a1
20006560:	00050863          	beqz	a0,20006570 <__swsetup_r+0x30>
20006564:	02052783          	lw	a5,32(a0)
20006568:	00079463          	bnez	a5,20006570 <__swsetup_r+0x30>
2000656c:	ec8ff0ef          	jal	20005c34 <__sinit>
20006570:	00c41783          	lh	a5,12(s0)
20006574:	0087f713          	andi	a4,a5,8
20006578:	06071263          	bnez	a4,200065dc <__swsetup_r+0x9c>
2000657c:	0107f713          	andi	a4,a5,16
20006580:	00071e63          	bnez	a4,2000659c <__swsetup_r+0x5c>
20006584:	00900713          	li	a4,9
20006588:	00e4a023          	sw	a4,0(s1)
2000658c:	0407e793          	ori	a5,a5,64
20006590:	00f41623          	sh	a5,12(s0)
20006594:	fff00513          	li	a0,-1
20006598:	0980006f          	j	20006630 <__swsetup_r+0xf0>
2000659c:	0047f713          	andi	a4,a5,4
200065a0:	02070a63          	beqz	a4,200065d4 <__swsetup_r+0x94>
200065a4:	03442583          	lw	a1,52(s0)
200065a8:	00058c63          	beqz	a1,200065c0 <__swsetup_r+0x80>
200065ac:	04440793          	addi	a5,s0,68
200065b0:	00f58663          	beq	a1,a5,200065bc <__swsetup_r+0x7c>
200065b4:	00048513          	mv	a0,s1
200065b8:	c44fe0ef          	jal	200049fc <_free_r>
200065bc:	02042a23          	sw	zero,52(s0)
200065c0:	00c45783          	lhu	a5,12(s0)
200065c4:	01042703          	lw	a4,16(s0)
200065c8:	00042223          	sw	zero,4(s0)
200065cc:	fdb7f793          	andi	a5,a5,-37
200065d0:	00e42023          	sw	a4,0(s0)
200065d4:	0087e793          	ori	a5,a5,8
200065d8:	00f41623          	sh	a5,12(s0)
200065dc:	01042783          	lw	a5,16(s0)
200065e0:	02079063          	bnez	a5,20006600 <__swsetup_r+0xc0>
200065e4:	00c42783          	lw	a5,12(s0)
200065e8:	20000713          	li	a4,512
200065ec:	2807f793          	andi	a5,a5,640
200065f0:	00e78863          	beq	a5,a4,20006600 <__swsetup_r+0xc0>
200065f4:	00040593          	mv	a1,s0
200065f8:	00048513          	mv	a0,s1
200065fc:	c2dff0ef          	jal	20006228 <__smakebuf_r>
20006600:	00c41783          	lh	a5,12(s0)
20006604:	0017f713          	andi	a4,a5,1
20006608:	02070e63          	beqz	a4,20006644 <__swsetup_r+0x104>
2000660c:	01442703          	lw	a4,20(s0)
20006610:	00042423          	sw	zero,8(s0)
20006614:	40e00733          	neg	a4,a4
20006618:	00e42c23          	sw	a4,24(s0)
2000661c:	01042703          	lw	a4,16(s0)
20006620:	00000513          	li	a0,0
20006624:	00071663          	bnez	a4,20006630 <__swsetup_r+0xf0>
20006628:	0807f713          	andi	a4,a5,128
2000662c:	f60710e3          	bnez	a4,2000658c <__swsetup_r+0x4c>
20006630:	00c12083          	lw	ra,12(sp)
20006634:	00812403          	lw	s0,8(sp)
20006638:	00412483          	lw	s1,4(sp)
2000663c:	01010113          	addi	sp,sp,16
20006640:	00008067          	ret
20006644:	0027f713          	andi	a4,a5,2
20006648:	00000693          	li	a3,0
2000664c:	00071463          	bnez	a4,20006654 <__swsetup_r+0x114>
20006650:	01442683          	lw	a3,20(s0)
20006654:	00d42423          	sw	a3,8(s0)
20006658:	fc5ff06f          	j	2000661c <__swsetup_r+0xdc>

2000665c <memchr>:
2000665c:	0ff5f593          	zext.b	a1,a1
20006660:	00c50633          	add	a2,a0,a2
20006664:	00c51663          	bne	a0,a2,20006670 <memchr+0x14>
20006668:	00000513          	li	a0,0
2000666c:	00008067          	ret
20006670:	00054783          	lbu	a5,0(a0)
20006674:	feb78ce3          	beq	a5,a1,2000666c <memchr+0x10>
20006678:	00150513          	addi	a0,a0,1
2000667c:	fe9ff06f          	j	20006664 <memchr+0x8>

20006680 <_close_r>:
20006680:	ff010113          	addi	sp,sp,-16
20006684:	00812423          	sw	s0,8(sp)
20006688:	00050413          	mv	s0,a0
2000668c:	00058513          	mv	a0,a1
20006690:	00001797          	auipc	a5,0x1
20006694:	8a07a423          	sw	zero,-1880(a5) # 20006f38 <errno>
20006698:	00112623          	sw	ra,12(sp)
2000669c:	b0dfa0ef          	jal	200011a8 <_close>
200066a0:	fff00793          	li	a5,-1
200066a4:	00f51a63          	bne	a0,a5,200066b8 <_close_r+0x38>
200066a8:	00001797          	auipc	a5,0x1
200066ac:	8907a783          	lw	a5,-1904(a5) # 20006f38 <errno>
200066b0:	00078463          	beqz	a5,200066b8 <_close_r+0x38>
200066b4:	00f42023          	sw	a5,0(s0)
200066b8:	00c12083          	lw	ra,12(sp)
200066bc:	00812403          	lw	s0,8(sp)
200066c0:	01010113          	addi	sp,sp,16
200066c4:	00008067          	ret

200066c8 <_reclaim_reent>:
200066c8:	00000797          	auipc	a5,0x0
200066cc:	6f87a783          	lw	a5,1784(a5) # 20006dc0 <_impure_ptr>
200066d0:	16a78863          	beq	a5,a0,20006840 <_reclaim_reent+0x178>
200066d4:	01c52783          	lw	a5,28(a0)
200066d8:	fe010113          	addi	sp,sp,-32
200066dc:	00812c23          	sw	s0,24(sp)
200066e0:	00112e23          	sw	ra,28(sp)
200066e4:	00912a23          	sw	s1,20(sp)
200066e8:	01212823          	sw	s2,16(sp)
200066ec:	01312623          	sw	s3,12(sp)
200066f0:	00050413          	mv	s0,a0
200066f4:	08078463          	beqz	a5,2000677c <_reclaim_reent+0xb4>
200066f8:	00c7a783          	lw	a5,12(a5)
200066fc:	02078c63          	beqz	a5,20006734 <_reclaim_reent+0x6c>
20006700:	00000493          	li	s1,0
20006704:	08000913          	li	s2,128
20006708:	01c42783          	lw	a5,28(s0)
2000670c:	00c7a783          	lw	a5,12(a5)
20006710:	009787b3          	add	a5,a5,s1
20006714:	0007a583          	lw	a1,0(a5)
20006718:	04059863          	bnez	a1,20006768 <_reclaim_reent+0xa0>
2000671c:	00448493          	addi	s1,s1,4
20006720:	ff2494e3          	bne	s1,s2,20006708 <_reclaim_reent+0x40>
20006724:	01c42783          	lw	a5,28(s0)
20006728:	00040513          	mv	a0,s0
2000672c:	00c7a583          	lw	a1,12(a5)
20006730:	accfe0ef          	jal	200049fc <_free_r>
20006734:	01c42783          	lw	a5,28(s0)
20006738:	0007a583          	lw	a1,0(a5)
2000673c:	00058663          	beqz	a1,20006748 <_reclaim_reent+0x80>
20006740:	00040513          	mv	a0,s0
20006744:	ab8fe0ef          	jal	200049fc <_free_r>
20006748:	01c42783          	lw	a5,28(s0)
2000674c:	0087a483          	lw	s1,8(a5)
20006750:	02048663          	beqz	s1,2000677c <_reclaim_reent+0xb4>
20006754:	00048593          	mv	a1,s1
20006758:	00040513          	mv	a0,s0
2000675c:	0004a483          	lw	s1,0(s1)
20006760:	a9cfe0ef          	jal	200049fc <_free_r>
20006764:	fedff06f          	j	20006750 <_reclaim_reent+0x88>
20006768:	0005a983          	lw	s3,0(a1)
2000676c:	00040513          	mv	a0,s0
20006770:	a8cfe0ef          	jal	200049fc <_free_r>
20006774:	00098593          	mv	a1,s3
20006778:	fa1ff06f          	j	20006718 <_reclaim_reent+0x50>
2000677c:	01442583          	lw	a1,20(s0)
20006780:	00058663          	beqz	a1,2000678c <_reclaim_reent+0xc4>
20006784:	00040513          	mv	a0,s0
20006788:	a74fe0ef          	jal	200049fc <_free_r>
2000678c:	01c42583          	lw	a1,28(s0)
20006790:	00058663          	beqz	a1,2000679c <_reclaim_reent+0xd4>
20006794:	00040513          	mv	a0,s0
20006798:	a64fe0ef          	jal	200049fc <_free_r>
2000679c:	03042583          	lw	a1,48(s0)
200067a0:	00058663          	beqz	a1,200067ac <_reclaim_reent+0xe4>
200067a4:	00040513          	mv	a0,s0
200067a8:	a54fe0ef          	jal	200049fc <_free_r>
200067ac:	03442583          	lw	a1,52(s0)
200067b0:	00058663          	beqz	a1,200067bc <_reclaim_reent+0xf4>
200067b4:	00040513          	mv	a0,s0
200067b8:	a44fe0ef          	jal	200049fc <_free_r>
200067bc:	03842583          	lw	a1,56(s0)
200067c0:	00058663          	beqz	a1,200067cc <_reclaim_reent+0x104>
200067c4:	00040513          	mv	a0,s0
200067c8:	a34fe0ef          	jal	200049fc <_free_r>
200067cc:	04842583          	lw	a1,72(s0)
200067d0:	00058663          	beqz	a1,200067dc <_reclaim_reent+0x114>
200067d4:	00040513          	mv	a0,s0
200067d8:	a24fe0ef          	jal	200049fc <_free_r>
200067dc:	04442583          	lw	a1,68(s0)
200067e0:	00058663          	beqz	a1,200067ec <_reclaim_reent+0x124>
200067e4:	00040513          	mv	a0,s0
200067e8:	a14fe0ef          	jal	200049fc <_free_r>
200067ec:	02c42583          	lw	a1,44(s0)
200067f0:	00058663          	beqz	a1,200067fc <_reclaim_reent+0x134>
200067f4:	00040513          	mv	a0,s0
200067f8:	a04fe0ef          	jal	200049fc <_free_r>
200067fc:	02042783          	lw	a5,32(s0)
20006800:	02078263          	beqz	a5,20006824 <_reclaim_reent+0x15c>
20006804:	00040513          	mv	a0,s0
20006808:	01812403          	lw	s0,24(sp)
2000680c:	01c12083          	lw	ra,28(sp)
20006810:	01412483          	lw	s1,20(sp)
20006814:	01012903          	lw	s2,16(sp)
20006818:	00c12983          	lw	s3,12(sp)
2000681c:	02010113          	addi	sp,sp,32
20006820:	00078067          	jr	a5
20006824:	01c12083          	lw	ra,28(sp)
20006828:	01812403          	lw	s0,24(sp)
2000682c:	01412483          	lw	s1,20(sp)
20006830:	01012903          	lw	s2,16(sp)
20006834:	00c12983          	lw	s3,12(sp)
20006838:	02010113          	addi	sp,sp,32
2000683c:	00008067          	ret
20006840:	00008067          	ret

20006844 <_fstat_r>:
20006844:	ff010113          	addi	sp,sp,-16
20006848:	00812423          	sw	s0,8(sp)
2000684c:	00050413          	mv	s0,a0
20006850:	00058513          	mv	a0,a1
20006854:	00060593          	mv	a1,a2
20006858:	00000797          	auipc	a5,0x0
2000685c:	6e07a023          	sw	zero,1760(a5) # 20006f38 <errno>
20006860:	00112623          	sw	ra,12(sp)
20006864:	9a5fa0ef          	jal	20001208 <_fstat>
20006868:	fff00793          	li	a5,-1
2000686c:	00f51a63          	bne	a0,a5,20006880 <_fstat_r+0x3c>
20006870:	00000797          	auipc	a5,0x0
20006874:	6c87a783          	lw	a5,1736(a5) # 20006f38 <errno>
20006878:	00078463          	beqz	a5,20006880 <_fstat_r+0x3c>
2000687c:	00f42023          	sw	a5,0(s0)
20006880:	00c12083          	lw	ra,12(sp)
20006884:	00812403          	lw	s0,8(sp)
20006888:	01010113          	addi	sp,sp,16
2000688c:	00008067          	ret

20006890 <_isatty_r>:
20006890:	ff010113          	addi	sp,sp,-16
20006894:	00812423          	sw	s0,8(sp)
20006898:	00050413          	mv	s0,a0
2000689c:	00058513          	mv	a0,a1
200068a0:	00000797          	auipc	a5,0x0
200068a4:	6807ac23          	sw	zero,1688(a5) # 20006f38 <errno>
200068a8:	00112623          	sw	ra,12(sp)
200068ac:	9cdfa0ef          	jal	20001278 <_isatty>
200068b0:	fff00793          	li	a5,-1
200068b4:	00f51a63          	bne	a0,a5,200068c8 <_isatty_r+0x38>
200068b8:	00000797          	auipc	a5,0x0
200068bc:	6807a783          	lw	a5,1664(a5) # 20006f38 <errno>
200068c0:	00078463          	beqz	a5,200068c8 <_isatty_r+0x38>
200068c4:	00f42023          	sw	a5,0(s0)
200068c8:	00c12083          	lw	ra,12(sp)
200068cc:	00812403          	lw	s0,8(sp)
200068d0:	01010113          	addi	sp,sp,16
200068d4:	00008067          	ret

200068d8 <_lseek_r>:
200068d8:	ff010113          	addi	sp,sp,-16
200068dc:	00812423          	sw	s0,8(sp)
200068e0:	00050413          	mv	s0,a0
200068e4:	00058513          	mv	a0,a1
200068e8:	00060593          	mv	a1,a2
200068ec:	00068613          	mv	a2,a3
200068f0:	00000797          	auipc	a5,0x0
200068f4:	6407a423          	sw	zero,1608(a5) # 20006f38 <errno>
200068f8:	00112623          	sw	ra,12(sp)
200068fc:	949fa0ef          	jal	20001244 <_lseek>
20006900:	fff00793          	li	a5,-1
20006904:	00f51a63          	bne	a0,a5,20006918 <_lseek_r+0x40>
20006908:	00000797          	auipc	a5,0x0
2000690c:	6307a783          	lw	a5,1584(a5) # 20006f38 <errno>
20006910:	00078463          	beqz	a5,20006918 <_lseek_r+0x40>
20006914:	00f42023          	sw	a5,0(s0)
20006918:	00c12083          	lw	ra,12(sp)
2000691c:	00812403          	lw	s0,8(sp)
20006920:	01010113          	addi	sp,sp,16
20006924:	00008067          	ret

20006928 <_read_r>:
20006928:	ff010113          	addi	sp,sp,-16
2000692c:	00812423          	sw	s0,8(sp)
20006930:	00050413          	mv	s0,a0
20006934:	00058513          	mv	a0,a1
20006938:	00060593          	mv	a1,a2
2000693c:	00068613          	mv	a2,a3
20006940:	00000797          	auipc	a5,0x0
20006944:	5e07ac23          	sw	zero,1528(a5) # 20006f38 <errno>
20006948:	00112623          	sw	ra,12(sp)
2000694c:	9c1fa0ef          	jal	2000130c <_read>
20006950:	fff00793          	li	a5,-1
20006954:	00f51a63          	bne	a0,a5,20006968 <_read_r+0x40>
20006958:	00000797          	auipc	a5,0x0
2000695c:	5e07a783          	lw	a5,1504(a5) # 20006f38 <errno>
20006960:	00078463          	beqz	a5,20006968 <_read_r+0x40>
20006964:	00f42023          	sw	a5,0(s0)
20006968:	00c12083          	lw	ra,12(sp)
2000696c:	00812403          	lw	s0,8(sp)
20006970:	01010113          	addi	sp,sp,16
20006974:	00008067          	ret

20006978 <_sbrk_r>:
20006978:	ff010113          	addi	sp,sp,-16
2000697c:	00812423          	sw	s0,8(sp)
20006980:	00050413          	mv	s0,a0
20006984:	00058513          	mv	a0,a1
20006988:	00000797          	auipc	a5,0x0
2000698c:	5a07a823          	sw	zero,1456(a5) # 20006f38 <errno>
20006990:	00112623          	sw	ra,12(sp)
20006994:	cc4fa0ef          	jal	20000e58 <_sbrk>
20006998:	fff00793          	li	a5,-1
2000699c:	00f51a63          	bne	a0,a5,200069b0 <_sbrk_r+0x38>
200069a0:	00000797          	auipc	a5,0x0
200069a4:	5987a783          	lw	a5,1432(a5) # 20006f38 <errno>
200069a8:	00078463          	beqz	a5,200069b0 <_sbrk_r+0x38>
200069ac:	00f42023          	sw	a5,0(s0)
200069b0:	00c12083          	lw	ra,12(sp)
200069b4:	00812403          	lw	s0,8(sp)
200069b8:	01010113          	addi	sp,sp,16
200069bc:	00008067          	ret

200069c0 <_write_r>:
200069c0:	ff010113          	addi	sp,sp,-16
200069c4:	00812423          	sw	s0,8(sp)
200069c8:	00050413          	mv	s0,a0
200069cc:	00058513          	mv	a0,a1
200069d0:	00060593          	mv	a1,a2
200069d4:	00068613          	mv	a2,a3
200069d8:	00000797          	auipc	a5,0x0
200069dc:	5607a023          	sw	zero,1376(a5) # 20006f38 <errno>
200069e0:	00112623          	sw	ra,12(sp)
200069e4:	8c1fa0ef          	jal	200012a4 <_write>
200069e8:	fff00793          	li	a5,-1
200069ec:	00f51a63          	bne	a0,a5,20006a00 <_write_r+0x40>
200069f0:	00000797          	auipc	a5,0x0
200069f4:	5487a783          	lw	a5,1352(a5) # 20006f38 <errno>
200069f8:	00078463          	beqz	a5,20006a00 <_write_r+0x40>
200069fc:	00f42023          	sw	a5,0(s0)
20006a00:	00c12083          	lw	ra,12(sp)
20006a04:	00812403          	lw	s0,8(sp)
20006a08:	01010113          	addi	sp,sp,16
20006a0c:	00008067          	ret

20006a10 <memmove>:
20006a10:	02060c63          	beqz	a2,20006a48 <memmove+0x38>
20006a14:	00050313          	mv	t1,a0
20006a18:	00100693          	li	a3,1
20006a1c:	00b56a63          	bltu	a0,a1,20006a30 <memmove+0x20>
20006a20:	fff00693          	li	a3,-1
20006a24:	fff60713          	addi	a4,a2,-1
20006a28:	00e30333          	add	t1,t1,a4
20006a2c:	00e585b3          	add	a1,a1,a4
20006a30:	00058383          	lb	t2,0(a1)
20006a34:	00730023          	sb	t2,0(t1)
20006a38:	fff60613          	addi	a2,a2,-1
20006a3c:	00d30333          	add	t1,t1,a3
20006a40:	00d585b3          	add	a1,a1,a3
20006a44:	fe0616e3          	bnez	a2,20006a30 <memmove+0x20>
20006a48:	00008067          	ret

20006a4c <memset>:
20006a4c:	00050313          	mv	t1,a0
20006a50:	00060a63          	beqz	a2,20006a64 <memset+0x18>
20006a54:	00b30023          	sb	a1,0(t1)
20006a58:	fff60613          	addi	a2,a2,-1
20006a5c:	00130313          	addi	t1,t1,1
20006a60:	fe061ae3          	bnez	a2,20006a54 <memset+0x8>
20006a64:	00008067          	ret

20006a68 <memcpy>:
20006a68:	00050313          	mv	t1,a0
20006a6c:	00060e63          	beqz	a2,20006a88 <memcpy+0x20>
20006a70:	00058383          	lb	t2,0(a1)
20006a74:	00730023          	sb	t2,0(t1)
20006a78:	fff60613          	addi	a2,a2,-1
20006a7c:	00130313          	addi	t1,t1,1
20006a80:	00158593          	addi	a1,a1,1
20006a84:	fe0616e3          	bnez	a2,20006a70 <memcpy+0x8>
20006a88:	00008067          	ret

20006a8c <_realloc_r>:
20006a8c:	00059663          	bnez	a1,20006a98 <_realloc_r+0xc>
20006a90:	00060593          	mv	a1,a2
20006a94:	914fe06f          	j	20004ba8 <_malloc_r>
20006a98:	fe010113          	addi	sp,sp,-32
20006a9c:	00812c23          	sw	s0,24(sp)
20006aa0:	01412423          	sw	s4,8(sp)
20006aa4:	00112e23          	sw	ra,28(sp)
20006aa8:	00912a23          	sw	s1,20(sp)
20006aac:	01212823          	sw	s2,16(sp)
20006ab0:	01312623          	sw	s3,12(sp)
20006ab4:	00060413          	mv	s0,a2
20006ab8:	00050a13          	mv	s4,a0
20006abc:	02061863          	bnez	a2,20006aec <_realloc_r+0x60>
20006ac0:	f3dfd0ef          	jal	200049fc <_free_r>
20006ac4:	00000493          	li	s1,0
20006ac8:	01c12083          	lw	ra,28(sp)
20006acc:	01812403          	lw	s0,24(sp)
20006ad0:	01012903          	lw	s2,16(sp)
20006ad4:	00c12983          	lw	s3,12(sp)
20006ad8:	00812a03          	lw	s4,8(sp)
20006adc:	00048513          	mv	a0,s1
20006ae0:	01412483          	lw	s1,20(sp)
20006ae4:	02010113          	addi	sp,sp,32
20006ae8:	00008067          	ret
20006aec:	00058493          	mv	s1,a1
20006af0:	058000ef          	jal	20006b48 <_malloc_usable_size_r>
20006af4:	00050913          	mv	s2,a0
20006af8:	00856663          	bltu	a0,s0,20006b04 <_realloc_r+0x78>
20006afc:	00155793          	srli	a5,a0,0x1
20006b00:	fc87e4e3          	bltu	a5,s0,20006ac8 <_realloc_r+0x3c>
20006b04:	00040593          	mv	a1,s0
20006b08:	000a0513          	mv	a0,s4
20006b0c:	89cfe0ef          	jal	20004ba8 <_malloc_r>
20006b10:	00050993          	mv	s3,a0
20006b14:	00051663          	bnez	a0,20006b20 <_realloc_r+0x94>
20006b18:	00098493          	mv	s1,s3
20006b1c:	fadff06f          	j	20006ac8 <_realloc_r+0x3c>
20006b20:	00040613          	mv	a2,s0
20006b24:	00897463          	bgeu	s2,s0,20006b2c <_realloc_r+0xa0>
20006b28:	00090613          	mv	a2,s2
20006b2c:	00048593          	mv	a1,s1
20006b30:	00098513          	mv	a0,s3
20006b34:	f35ff0ef          	jal	20006a68 <memcpy>
20006b38:	00048593          	mv	a1,s1
20006b3c:	000a0513          	mv	a0,s4
20006b40:	ebdfd0ef          	jal	200049fc <_free_r>
20006b44:	fd5ff06f          	j	20006b18 <_realloc_r+0x8c>

20006b48 <_malloc_usable_size_r>:
20006b48:	ffc5a783          	lw	a5,-4(a1)
20006b4c:	ffc78513          	addi	a0,a5,-4
20006b50:	0007d863          	bgez	a5,20006b60 <_malloc_usable_size_r+0x18>
20006b54:	00a585b3          	add	a1,a1,a0
20006b58:	0005a783          	lw	a5,0(a1)
20006b5c:	00f50533          	add	a0,a0,a5
20006b60:	00008067          	ret
20006b64:	500a                	.insn	2, 0x500a
20006b66:	6f72                	.insn	2, 0x6f72
20006b68:	6d617267          	.insn	4, 0x6d617267
20006b6c:	6520                	.insn	2, 0x6520
20006b6e:	6978                	.insn	2, 0x6978
20006b70:	6574                	.insn	2, 0x6574
20006b72:	2064                	.insn	2, 0x2064
20006b74:	68746977          	.insn	4, 0x68746977
20006b78:	6320                	.insn	2, 0x6320
20006b7a:	2065646f          	jal	s0,2005cd80 <__stack_top+0x55244>
20006b7e:	6425                	.insn	2, 0x6425
20006b80:	000a                	.insn	2, 0x000a
20006b82:	0000                	.insn	2, 0x0000
20006b84:	0000                	.insn	2, 0x0000
20006b86:	3e80                	.insn	2, 0x3e80
20006b88:	0000                	.insn	2, 0x0000
20006b8a:	3f00                	.insn	2, 0x3f00

20006b8c <__clz_tab>:
20006b8c:	0100 0202 0303 0303 0404 0404 0404 0404     ................
20006b9c:	0505 0505 0505 0505 0505 0505 0505 0505     ................
20006bac:	0606 0606 0606 0606 0606 0606 0606 0606     ................
20006bbc:	0606 0606 0606 0606 0606 0606 0606 0606     ................
20006bcc:	0707 0707 0707 0707 0707 0707 0707 0707     ................
20006bdc:	0707 0707 0707 0707 0707 0707 0707 0707     ................
20006bec:	0707 0707 0707 0707 0707 0707 0707 0707     ................
20006bfc:	0707 0707 0707 0707 0707 0707 0707 0707     ................
20006c0c:	0808 0808 0808 0808 0808 0808 0808 0808     ................
20006c1c:	0808 0808 0808 0808 0808 0808 0808 0808     ................
20006c2c:	0808 0808 0808 0808 0808 0808 0808 0808     ................
20006c3c:	0808 0808 0808 0808 0808 0808 0808 0808     ................
20006c4c:	0808 0808 0808 0808 0808 0808 0808 0808     ................
20006c5c:	0808 0808 0808 0808 0808 0808 0808 0808     ................
20006c6c:	0808 0808 0808 0808 0808 0808 0808 0808     ................
20006c7c:	0808 0808 0808 0808 0808 0808 0808 0808     ................
20006c8c:	2d23 2b30 0020 0000 6c68 004c 6665 4567     #-0+ ...hlL.efgE
20006c9c:	4746 0000 3130 3332 3534 3736 3938 4241     FG..0123456789AB
20006cac:	4443 4645 0000 0000 3130 3332 3534 3736     CDEF....01234567
20006cbc:	3938 6261 6463 6665 0000 0000 e77c ffff     89abcdef....|...
20006ccc:	e79c ffff e748 ffff e748 ffff e748 ffff     ....H...H...H...
20006cdc:	e748 ffff e79c ffff e748 ffff e748 ffff     H.......H...H...
20006cec:	e748 ffff e748 ffff e984 ffff e7f4 ffff     H...H...........
20006cfc:	e900 ffff e748 ffff e748 ffff e9cc ffff     ....H...H.......
20006d0c:	e748 ffff e7f4 ffff e748 ffff e748 ffff     H.......H...H...
20006d1c:	e90c ffff                                   ....
